
Translator.elf:     file format elf32-avr

Sections:
Idx Name          Size      VMA       LMA       File off  Algn
  0 .data         00000454  00800100  00001b76  00001c0a  2**0
                  CONTENTS, ALLOC, LOAD, DATA
  1 .text         00001b76  00000000  00000000  00000094  2**1
                  CONTENTS, ALLOC, LOAD, READONLY, CODE
  2 .bss          00000070  00800554  00800554  0000205e  2**0
                  ALLOC
  3 .stab         0000372c  00000000  00000000  00002060  2**2
                  CONTENTS, READONLY, DEBUGGING
  4 .stabstr      0000167b  00000000  00000000  0000578c  2**0
                  CONTENTS, READONLY, DEBUGGING

Disassembly of section .text:

00000000 <__vectors>:
       0:	0c 94 a1 00 	jmp	0x142	; 0x142 <__ctors_end>
       4:	0c 94 be 00 	jmp	0x17c	; 0x17c <__bad_interrupt>
       8:	0c 94 be 00 	jmp	0x17c	; 0x17c <__bad_interrupt>
       c:	0c 94 be 00 	jmp	0x17c	; 0x17c <__bad_interrupt>
      10:	0c 94 be 00 	jmp	0x17c	; 0x17c <__bad_interrupt>
      14:	0c 94 be 00 	jmp	0x17c	; 0x17c <__bad_interrupt>
      18:	0c 94 be 00 	jmp	0x17c	; 0x17c <__bad_interrupt>
      1c:	0c 94 e6 02 	jmp	0x5cc	; 0x5cc <__vector_7>
      20:	0c 94 91 02 	jmp	0x522	; 0x522 <__vector_8>
      24:	0c 94 be 00 	jmp	0x17c	; 0x17c <__bad_interrupt>
      28:	0c 94 be 00 	jmp	0x17c	; 0x17c <__bad_interrupt>
      2c:	0c 94 be 00 	jmp	0x17c	; 0x17c <__bad_interrupt>
      30:	0c 94 be 00 	jmp	0x17c	; 0x17c <__bad_interrupt>
      34:	0c 94 be 00 	jmp	0x17c	; 0x17c <__bad_interrupt>
      38:	0c 94 be 00 	jmp	0x17c	; 0x17c <__bad_interrupt>
      3c:	0c 94 be 00 	jmp	0x17c	; 0x17c <__bad_interrupt>
      40:	0c 94 be 00 	jmp	0x17c	; 0x17c <__bad_interrupt>
      44:	0c 94 be 00 	jmp	0x17c	; 0x17c <__bad_interrupt>
      48:	0c 94 b8 01 	jmp	0x370	; 0x370 <__vector_18>
      4c:	0c 94 be 00 	jmp	0x17c	; 0x17c <__bad_interrupt>
      50:	0c 94 be 00 	jmp	0x17c	; 0x17c <__bad_interrupt>
      54:	0c 94 be 00 	jmp	0x17c	; 0x17c <__bad_interrupt>
      58:	0c 94 be 00 	jmp	0x17c	; 0x17c <__bad_interrupt>
      5c:	0c 94 be 00 	jmp	0x17c	; 0x17c <__bad_interrupt>
      60:	0c 94 be 00 	jmp	0x17c	; 0x17c <__bad_interrupt>
      64:	0c 94 be 00 	jmp	0x17c	; 0x17c <__bad_interrupt>
      68:	0c 94 be 00 	jmp	0x17c	; 0x17c <__bad_interrupt>
      6c:	0c 94 be 00 	jmp	0x17c	; 0x17c <__bad_interrupt>
      70:	0c 94 be 00 	jmp	0x17c	; 0x17c <__bad_interrupt>
      74:	0c 94 be 00 	jmp	0x17c	; 0x17c <__bad_interrupt>
      78:	0c 94 be 00 	jmp	0x17c	; 0x17c <__bad_interrupt>

0000007c <progmem_Befehl>:
      7c:	49 6e 69 74 0a 00 00 00 00 00 00 00 00 00 00 00     Init............
      8c:	00 00 00 40 30 31 00 00 00 00 00 00 00 00 00 00     ...@01..........
	...
      b4:	00 00 00 30 0d 0a 00 00 00 00 00 00 00 00 00 00     ...0............
	...
      dc:	00 00 00 48 6f 6d 65 0a 00 00 00 00 00 00 00 00     ...Home.........
      ec:	00 00 00 00 00 00 40 30 31 00 00 00 00 00 00 00     ......@01.......
	...
     118:	00 00 30 0d 0a 00 00 00 00 00 00 00 00 00 00 00     ..0.............
	...

00000142 <__ctors_end>:
     142:	11 24       	eor	r1, r1
     144:	1f be       	out	0x3f, r1	; 63
     146:	cf ef       	ldi	r28, 0xFF	; 255
     148:	d8 e0       	ldi	r29, 0x08	; 8
     14a:	de bf       	out	0x3e, r29	; 62
     14c:	cd bf       	out	0x3d, r28	; 61

0000014e <__do_copy_data>:
     14e:	15 e0       	ldi	r17, 0x05	; 5
     150:	a0 e0       	ldi	r26, 0x00	; 0
     152:	b1 e0       	ldi	r27, 0x01	; 1
     154:	e6 e7       	ldi	r30, 0x76	; 118
     156:	fb e1       	ldi	r31, 0x1B	; 27
     158:	02 c0       	rjmp	.+4      	; 0x15e <.do_copy_data_start>

0000015a <.do_copy_data_loop>:
     15a:	05 90       	lpm	r0, Z+
     15c:	0d 92       	st	X+, r0

0000015e <.do_copy_data_start>:
     15e:	a4 35       	cpi	r26, 0x54	; 84
     160:	b1 07       	cpc	r27, r17
     162:	d9 f7       	brne	.-10     	; 0x15a <.do_copy_data_loop>

00000164 <__do_clear_bss>:
     164:	15 e0       	ldi	r17, 0x05	; 5
     166:	a4 e5       	ldi	r26, 0x54	; 84
     168:	b5 e0       	ldi	r27, 0x05	; 5
     16a:	01 c0       	rjmp	.+2      	; 0x16e <.do_clear_bss_start>

0000016c <.do_clear_bss_loop>:
     16c:	1d 92       	st	X+, r1

0000016e <.do_clear_bss_start>:
     16e:	a4 3c       	cpi	r26, 0xC4	; 196
     170:	b1 07       	cpc	r27, r17
     172:	e1 f7       	brne	.-8      	; 0x16c <.do_clear_bss_loop>
     174:	0e 94 a6 09 	call	0x134c	; 0x134c <main>
     178:	0c 94 b9 0d 	jmp	0x1b72	; 0x1b72 <_exit>

0000017c <__bad_interrupt>:
     17c:	0c 94 00 00 	jmp	0	; 0x0 <__vectors>

00000180 <lcd_write>:
                 0: write instruction
Returns:  none
*************************************************************************/
#if LCD_IO_MODE
static void lcd_write(uint8_t data,uint8_t rs) 
{
     180:	28 2f       	mov	r18, r24
    unsigned char dataBits ;


    if (rs) {   /* write data        (RS=1, RW=0) */
     182:	66 23       	and	r22, r22
     184:	11 f0       	breq	.+4      	; 0x18a <lcd_write+0xa>
       lcd_rs_high();
     186:	46 9a       	sbi	0x08, 6	; 8
     188:	01 c0       	rjmp	.+2      	; 0x18c <lcd_write+0xc>
    } else {    /* write instruction (RS=0, RW=0) */
       lcd_rs_low();
     18a:	46 98       	cbi	0x08, 6	; 8
    }
    lcd_rw_low();
     18c:	45 98       	cbi	0x08, 5	; 8

    if ( ( &LCD_DATA0_PORT == &LCD_DATA1_PORT) && ( &LCD_DATA1_PORT == &LCD_DATA2_PORT ) && ( &LCD_DATA2_PORT == &LCD_DATA3_PORT )
      && (LCD_DATA0_PIN == 0) && (LCD_DATA1_PIN == 1) && (LCD_DATA2_PIN == 2) && (LCD_DATA3_PIN == 3) )
    {
        /* configure data pins as output */
        DDR(LCD_DATA0_PORT) |= 0x0F;
     18e:	87 b1       	in	r24, 0x07	; 7
     190:	8f 60       	ori	r24, 0x0F	; 15
     192:	87 b9       	out	0x07, r24	; 7

        /* output high nibble first */
        dataBits = LCD_DATA0_PORT & 0xF0;
     194:	98 b1       	in	r25, 0x08	; 8
     196:	90 7f       	andi	r25, 0xF0	; 240
        LCD_DATA0_PORT = dataBits |((data>>4)&0x0F);
     198:	82 2f       	mov	r24, r18
     19a:	82 95       	swap	r24
     19c:	8f 70       	andi	r24, 0x0F	; 15
     19e:	89 2b       	or	r24, r25
     1a0:	88 b9       	out	0x08, r24	; 8

#if LCD_IO_MODE
/* toggle Enable Pin to initiate write */
static void toggle_e(void)
{
    lcd_e_high();
     1a2:	44 9a       	sbi	0x08, 4	; 8
    lcd_e_delay();
     1a4:	00 c0       	rjmp	.+0      	; 0x1a6 <lcd_write+0x26>
    lcd_e_low();
     1a6:	44 98       	cbi	0x08, 4	; 8
        dataBits = LCD_DATA0_PORT & 0xF0;
        LCD_DATA0_PORT = dataBits |((data>>4)&0x0F);
        lcd_e_toggle();

        /* output low nibble */
        LCD_DATA0_PORT = dataBits | (data&0x0F);
     1a8:	2f 70       	andi	r18, 0x0F	; 15
     1aa:	29 2b       	or	r18, r25
     1ac:	28 b9       	out	0x08, r18	; 8

#if LCD_IO_MODE
/* toggle Enable Pin to initiate write */
static void toggle_e(void)
{
    lcd_e_high();
     1ae:	44 9a       	sbi	0x08, 4	; 8
    lcd_e_delay();
     1b0:	00 c0       	rjmp	.+0      	; 0x1b2 <lcd_write+0x32>
    lcd_e_low();
     1b2:	44 98       	cbi	0x08, 4	; 8
        /* output low nibble */
        LCD_DATA0_PORT = dataBits | (data&0x0F);
        lcd_e_toggle();

        /* all data pins high (inactive) */
        LCD_DATA0_PORT = dataBits | 0x0F;
     1b4:	9f 60       	ori	r25, 0x0F	; 15
     1b6:	98 b9       	out	0x08, r25	; 8
        LCD_DATA0_PORT |= _BV(LCD_DATA0_PIN);
        LCD_DATA1_PORT |= _BV(LCD_DATA1_PIN);
        LCD_DATA2_PORT |= _BV(LCD_DATA2_PIN);
        LCD_DATA3_PORT |= _BV(LCD_DATA3_PIN);
    }
}
     1b8:	08 95       	ret

000001ba <lcd_read>:
static uint8_t lcd_read(uint8_t rs) 
{
    uint8_t data;
    
    
    if (rs)
     1ba:	88 23       	and	r24, r24
     1bc:	11 f0       	breq	.+4      	; 0x1c2 <lcd_read+0x8>
        lcd_rs_high();                       /* RS=1: read data      */
     1be:	46 9a       	sbi	0x08, 6	; 8
     1c0:	01 c0       	rjmp	.+2      	; 0x1c4 <lcd_read+0xa>
    else
        lcd_rs_low();                        /* RS=0: read busy flag */
     1c2:	46 98       	cbi	0x08, 6	; 8
    lcd_rw_high();                           /* RW=1  read mode      */
     1c4:	45 9a       	sbi	0x08, 5	; 8
    
    if ( ( &LCD_DATA0_PORT == &LCD_DATA1_PORT) && ( &LCD_DATA1_PORT == &LCD_DATA2_PORT ) && ( &LCD_DATA2_PORT == &LCD_DATA3_PORT )
      && ( LCD_DATA0_PIN == 0 )&& (LCD_DATA1_PIN == 1) && (LCD_DATA2_PIN == 2) && (LCD_DATA3_PIN == 3) )
    {
        DDR(LCD_DATA0_PORT) &= 0xF0;         /* configure data pins as input */
     1c6:	87 b1       	in	r24, 0x07	; 7
     1c8:	80 7f       	andi	r24, 0xF0	; 240
     1ca:	87 b9       	out	0x07, r24	; 7
        
        lcd_e_high();
     1cc:	44 9a       	sbi	0x08, 4	; 8
        lcd_e_delay();        
     1ce:	00 c0       	rjmp	.+0      	; 0x1d0 <lcd_read+0x16>
        data = PIN(LCD_DATA0_PORT) << 4;     /* read high nibble first */
     1d0:	96 b1       	in	r25, 0x06	; 6
        lcd_e_low();
     1d2:	44 98       	cbi	0x08, 4	; 8
        
        lcd_e_delay();                       /* Enable 500ns low       */
     1d4:	00 c0       	rjmp	.+0      	; 0x1d6 <lcd_read+0x1c>
        
        lcd_e_high();
     1d6:	44 9a       	sbi	0x08, 4	; 8
        lcd_e_delay();
     1d8:	00 c0       	rjmp	.+0      	; 0x1da <lcd_read+0x20>
        data |= PIN(LCD_DATA0_PORT)&0x0F;    /* read low nibble        */
     1da:	86 b1       	in	r24, 0x06	; 6
     1dc:	8f 70       	andi	r24, 0x0F	; 15
     1de:	92 95       	swap	r25
     1e0:	90 7f       	andi	r25, 0xF0	; 240
        lcd_e_low();
     1e2:	44 98       	cbi	0x08, 4	; 8
        if ( PIN(LCD_DATA2_PORT) & _BV(LCD_DATA2_PIN) ) data |= 0x04;
        if ( PIN(LCD_DATA3_PORT) & _BV(LCD_DATA3_PIN) ) data |= 0x08;        
        lcd_e_low();
    }
    return data;
}
     1e4:	89 2b       	or	r24, r25
     1e6:	08 95       	ret

000001e8 <lcd_waitbusy>:

{
    register uint8_t c;
    
    /* wait until busy flag is cleared */
    while ( (c=lcd_read(0)) & (1<<LCD_BUSY)) {}
     1e8:	80 e0       	ldi	r24, 0x00	; 0
     1ea:	0e 94 dd 00 	call	0x1ba	; 0x1ba <lcd_read>
     1ee:	87 fd       	sbrc	r24, 7
     1f0:	fb cf       	rjmp	.-10     	; 0x1e8 <lcd_waitbusy>
static inline void _delayFourCycles(unsigned int __count)
{
    if ( __count == 0 )    
        __asm__ __volatile__( "rjmp 1f\n 1:" );    // 2 cycles
    else
        __asm__ __volatile__ (
     1f2:	82 e0       	ldi	r24, 0x02	; 2
     1f4:	90 e0       	ldi	r25, 0x00	; 0
     1f6:	01 97       	sbiw	r24, 0x01	; 1
     1f8:	f1 f7       	brne	.-4      	; 0x1f6 <lcd_waitbusy+0xe>
    
    /* the address counter is updated 4us after the busy flag is cleared */
    delay(2);

    /* now read the address counter */
    return (lcd_read(0));  // return address counter
     1fa:	80 e0       	ldi	r24, 0x00	; 0
     1fc:	0e 94 dd 00 	call	0x1ba	; 0x1ba <lcd_read>
    
}/* lcd_waitbusy */
     200:	08 95       	ret

00000202 <lcd_command>:
Send LCD controller instruction command
Input:   instruction to send to LCD controller, see HD44780 data sheet
Returns: none
*************************************************************************/
void lcd_command(uint8_t cmd)
{
     202:	1f 93       	push	r17
     204:	18 2f       	mov	r17, r24
    lcd_waitbusy();
     206:	0e 94 f4 00 	call	0x1e8	; 0x1e8 <lcd_waitbusy>
    lcd_write(cmd,0);
     20a:	81 2f       	mov	r24, r17
     20c:	60 e0       	ldi	r22, 0x00	; 0
     20e:	0e 94 c0 00 	call	0x180	; 0x180 <lcd_write>
}
     212:	1f 91       	pop	r17
     214:	08 95       	ret

00000216 <lcd_data>:
Send data byte to LCD controller 
Input:   data to send to LCD controller, see HD44780 data sheet
Returns: none
*************************************************************************/
void lcd_data(uint8_t data)
{
     216:	1f 93       	push	r17
     218:	18 2f       	mov	r17, r24
    lcd_waitbusy();
     21a:	0e 94 f4 00 	call	0x1e8	; 0x1e8 <lcd_waitbusy>
    lcd_write(data,1);
     21e:	81 2f       	mov	r24, r17
     220:	61 e0       	ldi	r22, 0x01	; 1
     222:	0e 94 c0 00 	call	0x180	; 0x180 <lcd_write>
}
     226:	1f 91       	pop	r17
     228:	08 95       	ret

0000022a <lcd_gotoxy>:
        lcd_command((1<<LCD_DDRAM)+LCD_START_LINE1+x);
    else
        lcd_command((1<<LCD_DDRAM)+LCD_START_LINE2+x);
#endif
#if LCD_LINES==4
    if ( y==0 )
     22a:	66 23       	and	r22, r22
     22c:	11 f4       	brne	.+4      	; 0x232 <lcd_gotoxy+0x8>
        lcd_command((1<<LCD_DDRAM)+LCD_START_LINE1+x);
     22e:	80 58       	subi	r24, 0x80	; 128
     230:	09 c0       	rjmp	.+18     	; 0x244 <lcd_gotoxy+0x1a>
    else if ( y==1)
     232:	61 30       	cpi	r22, 0x01	; 1
     234:	11 f4       	brne	.+4      	; 0x23a <lcd_gotoxy+0x10>
        lcd_command((1<<LCD_DDRAM)+LCD_START_LINE2+x);
     236:	80 54       	subi	r24, 0x40	; 64
     238:	05 c0       	rjmp	.+10     	; 0x244 <lcd_gotoxy+0x1a>
    else if ( y==2)
     23a:	62 30       	cpi	r22, 0x02	; 2
     23c:	11 f4       	brne	.+4      	; 0x242 <lcd_gotoxy+0x18>
        lcd_command((1<<LCD_DDRAM)+LCD_START_LINE3+x);
     23e:	8c 56       	subi	r24, 0x6C	; 108
     240:	01 c0       	rjmp	.+2      	; 0x244 <lcd_gotoxy+0x1a>
    else /* y==3 */
        lcd_command((1<<LCD_DDRAM)+LCD_START_LINE4+x);
     242:	8c 52       	subi	r24, 0x2C	; 44
     244:	0e 94 01 01 	call	0x202	; 0x202 <lcd_command>
     248:	08 95       	ret

0000024a <lcd_getxy>:

/*************************************************************************
*************************************************************************/
int lcd_getxy(void)
{
    return lcd_waitbusy();
     24a:	0e 94 f4 00 	call	0x1e8	; 0x1e8 <lcd_waitbusy>
}
     24e:	90 e0       	ldi	r25, 0x00	; 0
     250:	08 95       	ret

00000252 <lcd_clrscr>:
/*************************************************************************
Clear display and set cursor to home position
*************************************************************************/
void lcd_clrscr(void)
{
    lcd_command(1<<LCD_CLR);
     252:	81 e0       	ldi	r24, 0x01	; 1
     254:	0e 94 01 01 	call	0x202	; 0x202 <lcd_command>
}
     258:	08 95       	ret

0000025a <lcd_home>:
/*************************************************************************
Set cursor to home position
*************************************************************************/
void lcd_home(void)
{
    lcd_command(1<<LCD_HOME);
     25a:	82 e0       	ldi	r24, 0x02	; 2
     25c:	0e 94 01 01 	call	0x202	; 0x202 <lcd_command>
}
     260:	08 95       	ret

00000262 <lcd_putc>:
Display character at current cursor position 
Input:    character to be displayed                                       
Returns:  none
*************************************************************************/
void lcd_putc(char c)
{
     262:	1f 93       	push	r17
     264:	18 2f       	mov	r17, r24
    uint8_t pos;


    pos = lcd_waitbusy();   // read busy-flag and address counter
     266:	0e 94 f4 00 	call	0x1e8	; 0x1e8 <lcd_waitbusy>
     26a:	98 2f       	mov	r25, r24
    if (c=='\n')
     26c:	1a 30       	cpi	r17, 0x0A	; 10
     26e:	99 f4       	brne	.+38     	; 0x296 <lcd_putc+0x34>
    else if ( (pos >= LCD_START_LINE3) && (pos < LCD_START_LINE4) )
        addressCounter = LCD_START_LINE4;
    else 
        addressCounter = LCD_START_LINE1;
#else
    if ( pos < LCD_START_LINE3 )
     270:	84 31       	cpi	r24, 0x14	; 20
     272:	10 f4       	brcc	.+4      	; 0x278 <lcd_putc+0x16>
     274:	80 e4       	ldi	r24, 0x40	; 64
     276:	0b c0       	rjmp	.+22     	; 0x28e <lcd_putc+0x2c>
        addressCounter = LCD_START_LINE2;
    else if ( (pos >= LCD_START_LINE2) && (pos < LCD_START_LINE4) )
     278:	80 54       	subi	r24, 0x40	; 64
     27a:	84 31       	cpi	r24, 0x14	; 20
     27c:	10 f4       	brcc	.+4      	; 0x282 <lcd_putc+0x20>
     27e:	84 e1       	ldi	r24, 0x14	; 20
     280:	06 c0       	rjmp	.+12     	; 0x28e <lcd_putc+0x2c>
        addressCounter = LCD_START_LINE3;
    else if ( (pos >= LCD_START_LINE3) && (pos < LCD_START_LINE2) )
     282:	94 51       	subi	r25, 0x14	; 20
     284:	9c 32       	cpi	r25, 0x2C	; 44
     286:	10 f0       	brcs	.+4      	; 0x28c <lcd_putc+0x2a>
     288:	80 e0       	ldi	r24, 0x00	; 0
     28a:	01 c0       	rjmp	.+2      	; 0x28e <lcd_putc+0x2c>
     28c:	84 e5       	ldi	r24, 0x54	; 84
        addressCounter = LCD_START_LINE4;
    else 
        addressCounter = LCD_START_LINE1;
#endif
#endif
    lcd_command((1<<LCD_DDRAM)+addressCounter);
     28e:	80 58       	subi	r24, 0x80	; 128
     290:	0e 94 01 01 	call	0x202	; 0x202 <lcd_command>
     294:	18 c0       	rjmp	.+48     	; 0x2c6 <lcd_putc+0x64>
            lcd_write((1<<LCD_DDRAM)+LCD_START_LINE2,0);    
        }else if ( pos == LCD_START_LINE2+LCD_DISP_LENGTH ){
            lcd_write((1<<LCD_DDRAM)+LCD_START_LINE1,0);
        }
#elif LCD_LINES==4
        if ( pos == LCD_START_LINE1+LCD_DISP_LENGTH ) {
     296:	83 31       	cpi	r24, 0x13	; 19
     298:	11 f4       	brne	.+4      	; 0x29e <lcd_putc+0x3c>
            lcd_write((1<<LCD_DDRAM)+LCD_START_LINE2,0);    
     29a:	80 ec       	ldi	r24, 0xC0	; 192
     29c:	0b c0       	rjmp	.+22     	; 0x2b4 <lcd_putc+0x52>
        }else if ( pos == LCD_START_LINE2+LCD_DISP_LENGTH ) {
     29e:	83 35       	cpi	r24, 0x53	; 83
     2a0:	11 f4       	brne	.+4      	; 0x2a6 <lcd_putc+0x44>
            lcd_write((1<<LCD_DDRAM)+LCD_START_LINE3,0);
     2a2:	84 e9       	ldi	r24, 0x94	; 148
     2a4:	07 c0       	rjmp	.+14     	; 0x2b4 <lcd_putc+0x52>
        }else if ( pos == LCD_START_LINE3+LCD_DISP_LENGTH ) {
     2a6:	87 32       	cpi	r24, 0x27	; 39
     2a8:	11 f4       	brne	.+4      	; 0x2ae <lcd_putc+0x4c>
            lcd_write((1<<LCD_DDRAM)+LCD_START_LINE4,0);
     2aa:	84 ed       	ldi	r24, 0xD4	; 212
     2ac:	03 c0       	rjmp	.+6      	; 0x2b4 <lcd_putc+0x52>
        }else if ( pos == LCD_START_LINE4+LCD_DISP_LENGTH ) {
     2ae:	87 36       	cpi	r24, 0x67	; 103
     2b0:	21 f4       	brne	.+8      	; 0x2ba <lcd_putc+0x58>
            lcd_write((1<<LCD_DDRAM)+LCD_START_LINE1,0);
     2b2:	80 e8       	ldi	r24, 0x80	; 128
     2b4:	60 e0       	ldi	r22, 0x00	; 0
     2b6:	0e 94 c0 00 	call	0x180	; 0x180 <lcd_write>
        }
#endif
        lcd_waitbusy();
     2ba:	0e 94 f4 00 	call	0x1e8	; 0x1e8 <lcd_waitbusy>
#endif
        lcd_write(c, 1);
     2be:	81 2f       	mov	r24, r17
     2c0:	61 e0       	ldi	r22, 0x01	; 1
     2c2:	0e 94 c0 00 	call	0x180	; 0x180 <lcd_write>
    }

}/* lcd_putc */
     2c6:	1f 91       	pop	r17
     2c8:	08 95       	ret

000002ca <lcd_puts>:
Input:    string to be displayed
Returns:  none
*************************************************************************/
void lcd_puts(const char *s)
/* print string on lcd (no auto linefeed) */
{
     2ca:	cf 93       	push	r28
     2cc:	df 93       	push	r29
     2ce:	ec 01       	movw	r28, r24
     2d0:	02 c0       	rjmp	.+4      	; 0x2d6 <lcd_puts+0xc>
    register char c;

    while ( (c = *s++) ) {
        lcd_putc(c);
     2d2:	0e 94 31 01 	call	0x262	; 0x262 <lcd_putc>
void lcd_puts(const char *s)
/* print string on lcd (no auto linefeed) */
{
    register char c;

    while ( (c = *s++) ) {
     2d6:	89 91       	ld	r24, Y+
     2d8:	88 23       	and	r24, r24
     2da:	d9 f7       	brne	.-10     	; 0x2d2 <lcd_puts+0x8>
        lcd_putc(c);
    }

}/* lcd_puts */
     2dc:	df 91       	pop	r29
     2de:	cf 91       	pop	r28
     2e0:	08 95       	ret

000002e2 <lcd_puts_p>:
Input:     string from program memory be be displayed                                        
Returns:   none
*************************************************************************/
void lcd_puts_p(const char *progmem_s)
/* print string from program memory on lcd (no auto linefeed) */
{
     2e2:	cf 93       	push	r28
     2e4:	df 93       	push	r29
     2e6:	ec 01       	movw	r28, r24
     2e8:	02 c0       	rjmp	.+4      	; 0x2ee <lcd_puts_p+0xc>
    register char c;

    while ( (c = pgm_read_byte(progmem_s++)) ) {
        lcd_putc(c);
     2ea:	0e 94 31 01 	call	0x262	; 0x262 <lcd_putc>
     2ee:	fe 01       	movw	r30, r28
void lcd_puts_p(const char *progmem_s)
/* print string from program memory on lcd (no auto linefeed) */
{
    register char c;

    while ( (c = pgm_read_byte(progmem_s++)) ) {
     2f0:	21 96       	adiw	r28, 0x01	; 1
     2f2:	84 91       	lpm	r24, Z+
     2f4:	88 23       	and	r24, r24
     2f6:	c9 f7       	brne	.-14     	; 0x2ea <lcd_puts_p+0x8>
        lcd_putc(c);
    }

}/* lcd_puts_p */
     2f8:	df 91       	pop	r29
     2fa:	cf 91       	pop	r28
     2fc:	08 95       	ret

000002fe <lcd_init>:
                   LCD_DISP_ON_CURSOR      display on, cursor on
                   LCD_DISP_CURSOR_BLINK   display on, cursor on flashing
Returns:  none
*************************************************************************/
void lcd_init(uint8_t dispAttr)
{
     2fe:	1f 93       	push	r17
     300:	18 2f       	mov	r17, r24
    }
    else if ( ( &LCD_DATA0_PORT == &LCD_DATA1_PORT) && ( &LCD_DATA1_PORT == &LCD_DATA2_PORT ) && ( &LCD_DATA2_PORT == &LCD_DATA3_PORT )
           && (LCD_DATA0_PIN == 0 ) && (LCD_DATA1_PIN == 1) && (LCD_DATA2_PIN == 2) && (LCD_DATA3_PIN == 3) )
    {
        /* configure all port bits as output (all LCD data lines on same port, but control lines on different ports) */
        DDR(LCD_DATA0_PORT) |= 0x0F;
     302:	87 b1       	in	r24, 0x07	; 7
     304:	8f 60       	ori	r24, 0x0F	; 15
     306:	87 b9       	out	0x07, r24	; 7
        DDR(LCD_RS_PORT)    |= _BV(LCD_RS_PIN);
     308:	3e 9a       	sbi	0x07, 6	; 7
        DDR(LCD_RW_PORT)    |= _BV(LCD_RW_PIN);
     30a:	3d 9a       	sbi	0x07, 5	; 7
        DDR(LCD_E_PORT)     |= _BV(LCD_E_PIN);
     30c:	3c 9a       	sbi	0x07, 4	; 7
static inline void _delayFourCycles(unsigned int __count)
{
    if ( __count == 0 )    
        __asm__ __volatile__( "rjmp 1f\n 1:" );    // 2 cycles
    else
        __asm__ __volatile__ (
     30e:	80 e8       	ldi	r24, 0x80	; 128
     310:	9e e3       	ldi	r25, 0x3E	; 62
     312:	01 97       	sbiw	r24, 0x01	; 1
     314:	f1 f7       	brne	.-4      	; 0x312 <lcd_init+0x14>
        DDR(LCD_DATA3_PORT) |= _BV(LCD_DATA3_PIN);
    }
    delay(16000);        /* wait 16ms or more after power-on       */
    
    /* initial write to lcd is 8bit */
    LCD_DATA1_PORT |= _BV(LCD_DATA1_PIN);  // _BV(LCD_FUNCTION)>>4;
     316:	41 9a       	sbi	0x08, 1	; 8
    LCD_DATA0_PORT |= _BV(LCD_DATA0_PIN);  // _BV(LCD_FUNCTION_8BIT)>>4;
     318:	40 9a       	sbi	0x08, 0	; 8

#if LCD_IO_MODE
/* toggle Enable Pin to initiate write */
static void toggle_e(void)
{
    lcd_e_high();
     31a:	44 9a       	sbi	0x08, 4	; 8
    lcd_e_delay();
     31c:	00 c0       	rjmp	.+0      	; 0x31e <lcd_init+0x20>
    lcd_e_low();
     31e:	44 98       	cbi	0x08, 4	; 8
static inline void _delayFourCycles(unsigned int __count)
{
    if ( __count == 0 )    
        __asm__ __volatile__( "rjmp 1f\n 1:" );    // 2 cycles
    else
        __asm__ __volatile__ (
     320:	80 e8       	ldi	r24, 0x80	; 128
     322:	93 e1       	ldi	r25, 0x13	; 19
     324:	01 97       	sbiw	r24, 0x01	; 1
     326:	f1 f7       	brne	.-4      	; 0x324 <lcd_init+0x26>

#if LCD_IO_MODE
/* toggle Enable Pin to initiate write */
static void toggle_e(void)
{
    lcd_e_high();
     328:	44 9a       	sbi	0x08, 4	; 8
    lcd_e_delay();
     32a:	00 c0       	rjmp	.+0      	; 0x32c <lcd_init+0x2e>
    lcd_e_low();
     32c:	44 98       	cbi	0x08, 4	; 8
static inline void _delayFourCycles(unsigned int __count)
{
    if ( __count == 0 )    
        __asm__ __volatile__( "rjmp 1f\n 1:" );    // 2 cycles
    else
        __asm__ __volatile__ (
     32e:	80 e4       	ldi	r24, 0x40	; 64
     330:	90 e0       	ldi	r25, 0x00	; 0
     332:	fc 01       	movw	r30, r24
     334:	31 97       	sbiw	r30, 0x01	; 1
     336:	f1 f7       	brne	.-4      	; 0x334 <lcd_init+0x36>

#if LCD_IO_MODE
/* toggle Enable Pin to initiate write */
static void toggle_e(void)
{
    lcd_e_high();
     338:	44 9a       	sbi	0x08, 4	; 8
    lcd_e_delay();
     33a:	00 c0       	rjmp	.+0      	; 0x33c <lcd_init+0x3e>
    lcd_e_low();
     33c:	44 98       	cbi	0x08, 4	; 8
static inline void _delayFourCycles(unsigned int __count)
{
    if ( __count == 0 )    
        __asm__ __volatile__( "rjmp 1f\n 1:" );    // 2 cycles
    else
        __asm__ __volatile__ (
     33e:	fc 01       	movw	r30, r24
     340:	31 97       	sbiw	r30, 0x01	; 1
     342:	f1 f7       	brne	.-4      	; 0x340 <lcd_init+0x42>
    /* repeat last command a third time */
    lcd_e_toggle();      
    delay(64);           /* delay, busy flag can't be checked here */

    /* now configure for 4bit mode */
    LCD_DATA0_PORT &= ~_BV(LCD_DATA0_PIN);   // LCD_FUNCTION_4BIT_1LINE>>4
     344:	40 98       	cbi	0x08, 0	; 8

#if LCD_IO_MODE
/* toggle Enable Pin to initiate write */
static void toggle_e(void)
{
    lcd_e_high();
     346:	44 9a       	sbi	0x08, 4	; 8
    lcd_e_delay();
     348:	00 c0       	rjmp	.+0      	; 0x34a <lcd_init+0x4c>
    lcd_e_low();
     34a:	44 98       	cbi	0x08, 4	; 8
static inline void _delayFourCycles(unsigned int __count)
{
    if ( __count == 0 )    
        __asm__ __volatile__( "rjmp 1f\n 1:" );    // 2 cycles
    else
        __asm__ __volatile__ (
     34c:	01 97       	sbiw	r24, 0x01	; 1
     34e:	f1 f7       	brne	.-4      	; 0x34c <lcd_init+0x4e>
    /* Display with KS0073 controller requires special commands for enabling 4 line mode */
	lcd_command(KS0073_EXTENDED_FUNCTION_REGISTER_ON);
	lcd_command(KS0073_4LINES_MODE);
	lcd_command(KS0073_EXTENDED_FUNCTION_REGISTER_OFF);
#else
    lcd_command(LCD_FUNCTION_DEFAULT);      /* function set: display lines  */
     350:	88 e2       	ldi	r24, 0x28	; 40
     352:	0e 94 01 01 	call	0x202	; 0x202 <lcd_command>
#endif
    lcd_command(LCD_DISP_OFF);              /* display off                  */
     356:	88 e0       	ldi	r24, 0x08	; 8
     358:	0e 94 01 01 	call	0x202	; 0x202 <lcd_command>
    lcd_clrscr();                           /* display clear                */ 
     35c:	0e 94 29 01 	call	0x252	; 0x252 <lcd_clrscr>
    lcd_command(LCD_MODE_DEFAULT);          /* set entry mode               */
     360:	86 e0       	ldi	r24, 0x06	; 6
     362:	0e 94 01 01 	call	0x202	; 0x202 <lcd_command>
    lcd_command(dispAttr);                  /* display/cursor control       */
     366:	81 2f       	mov	r24, r17
     368:	0e 94 01 01 	call	0x202	; 0x202 <lcd_command>

}/* lcd_init */
     36c:	1f 91       	pop	r17
     36e:	08 95       	ret

00000370 <__vector_18>:
 
volatile uint8_t key_rpt;                                  // key long press and repeat
 
 
ISR( TIMER0_OVF_vect )                            // every 10ms
{
     370:	1f 92       	push	r1
     372:	0f 92       	push	r0
     374:	0f b6       	in	r0, 0x3f	; 63
     376:	0f 92       	push	r0
     378:	11 24       	eor	r1, r1
     37a:	2f 93       	push	r18
     37c:	8f 93       	push	r24
     37e:	9f 93       	push	r25
  static uint8_t ct0, ct1, rpt;
  uint8_t i;
 
  TCNT0 = (uint8_t)(int16_t)-(F_CPU / 1024 * 10e-3 + 0.5);  // preload for 10ms
     380:	82 eb       	ldi	r24, 0xB2	; 178
     382:	86 bd       	out	0x26, r24	; 38
 
  i = key_state ^ ~KEY_PIN;                       // key changed ?
     384:	80 91 c3 05 	lds	r24, 0x05C3
     388:	20 b1       	in	r18, 0x00	; 0
     38a:	20 95       	com	r18
     38c:	28 27       	eor	r18, r24
  ct0 = ~( ct0 & i );                             // reset or count ct0
     38e:	80 91 5c 05 	lds	r24, 0x055C
     392:	82 23       	and	r24, r18
     394:	80 95       	com	r24
     396:	80 93 5c 05 	sts	0x055C, r24
  ct1 = ct0 ^ (ct1 & i);                          // reset or count ct1
     39a:	90 91 5b 05 	lds	r25, 0x055B
     39e:	92 23       	and	r25, r18
     3a0:	98 27       	eor	r25, r24
     3a2:	90 93 5b 05 	sts	0x055B, r25
  i &= ct0 & ct1;                                 // count until roll over ?
     3a6:	82 23       	and	r24, r18
     3a8:	89 23       	and	r24, r25
  key_state ^= i;                                 // then toggle debounced state
     3aa:	90 91 c3 05 	lds	r25, 0x05C3
     3ae:	98 27       	eor	r25, r24
     3b0:	90 93 c3 05 	sts	0x05C3, r25
  key_press |= key_state & i;                     // 0->1: key press detect
     3b4:	20 91 c2 05 	lds	r18, 0x05C2
     3b8:	90 91 c3 05 	lds	r25, 0x05C3
     3bc:	89 23       	and	r24, r25
     3be:	82 2b       	or	r24, r18
     3c0:	80 93 c2 05 	sts	0x05C2, r24
 
  if( (key_state & REPEAT_MASK) == 0 )            // check repeat function
     3c4:	80 91 c3 05 	lds	r24, 0x05C3
     3c8:	87 78       	andi	r24, 0x87	; 135
     3ca:	19 f4       	brne	.+6      	; 0x3d2 <__vector_18+0x62>
     rpt = REPEAT_START;                          // start delay
     3cc:	82 e3       	ldi	r24, 0x32	; 50
     3ce:	80 93 5a 05 	sts	0x055A, r24
  if( --rpt == 0 ){
     3d2:	80 91 5a 05 	lds	r24, 0x055A
     3d6:	81 50       	subi	r24, 0x01	; 1
     3d8:	80 93 5a 05 	sts	0x055A, r24
     3dc:	88 23       	and	r24, r24
     3de:	59 f4       	brne	.+22     	; 0x3f6 <__vector_18+0x86>
    rpt = REPEAT_NEXT;                            // repeat delay
     3e0:	84 e1       	ldi	r24, 0x14	; 20
     3e2:	80 93 5a 05 	sts	0x055A, r24
    key_rpt |= key_state & REPEAT_MASK;
     3e6:	90 91 5d 05 	lds	r25, 0x055D
     3ea:	80 91 c3 05 	lds	r24, 0x05C3
     3ee:	87 78       	andi	r24, 0x87	; 135
     3f0:	89 2b       	or	r24, r25
     3f2:	80 93 5d 05 	sts	0x055D, r24
  }
}
     3f6:	9f 91       	pop	r25
     3f8:	8f 91       	pop	r24
     3fa:	2f 91       	pop	r18
     3fc:	0f 90       	pop	r0
     3fe:	0f be       	out	0x3f, r0	; 63
     400:	0f 90       	pop	r0
     402:	1f 90       	pop	r1
     404:	18 95       	reti

00000406 <get_key_press>:
// check if a key has been pressed. Each pressed key is reported
// only once
//
uint8_t get_key_press( uint8_t key_mask )
{
  cli();                                          // read and clear atomic !
     406:	f8 94       	cli
  key_mask &= key_press;                          // read key(s)
     408:	90 91 c2 05 	lds	r25, 0x05C2
     40c:	89 23       	and	r24, r25
  key_press ^= key_mask;                          // clear key(s)
     40e:	90 91 c2 05 	lds	r25, 0x05C2
     412:	98 27       	eor	r25, r24
     414:	90 93 c2 05 	sts	0x05C2, r25
  sei();
     418:	78 94       	sei
  return key_mask;
}
     41a:	08 95       	ret

0000041c <get_key_rpt>:
// to this function. This simulates the user repeatedly
// pressing and releasing the key.
//
uint8_t get_key_rpt( uint8_t key_mask )
{
  cli();                                          // read and clear atomic !
     41c:	f8 94       	cli
  key_mask &= key_rpt;                            // read key(s)
     41e:	90 91 5d 05 	lds	r25, 0x055D
     422:	89 23       	and	r24, r25
  key_rpt ^= key_mask;                            // clear key(s)
     424:	90 91 5d 05 	lds	r25, 0x055D
     428:	98 27       	eor	r25, r24
     42a:	90 93 5d 05 	sts	0x055D, r25
  sei();
     42e:	78 94       	sei
  return key_mask;
}
     430:	08 95       	ret

00000432 <get_key_short>:
 
///////////////////////////////////////////////////////////////////
//
uint8_t get_key_short( uint8_t key_mask )
{
  cli();                                          // read key state and key press atomic !
     432:	f8 94       	cli
  return get_key_press( ~key_state & key_mask );
     434:	90 91 c3 05 	lds	r25, 0x05C3
// check if a key has been pressed. Each pressed key is reported
// only once
//
uint8_t get_key_press( uint8_t key_mask )
{
  cli();                                          // read and clear atomic !
     438:	f8 94       	cli
  key_mask &= key_press;                          // read key(s)
     43a:	20 91 c2 05 	lds	r18, 0x05C2
     43e:	90 95       	com	r25
     440:	89 23       	and	r24, r25
     442:	82 23       	and	r24, r18
  key_press ^= key_mask;                          // clear key(s)
     444:	90 91 c2 05 	lds	r25, 0x05C2
     448:	98 27       	eor	r25, r24
     44a:	90 93 c2 05 	sts	0x05C2, r25
  sei();
     44e:	78 94       	sei
//
uint8_t get_key_short( uint8_t key_mask )
{
  cli();                                          // read key state and key press atomic !
  return get_key_press( ~key_state & key_mask );
}
     450:	08 95       	ret

00000452 <get_key_long>:
 
///////////////////////////////////////////////////////////////////
//
uint8_t get_key_long( uint8_t key_mask )
{
     452:	98 2f       	mov	r25, r24
// to this function. This simulates the user repeatedly
// pressing and releasing the key.
//
uint8_t get_key_rpt( uint8_t key_mask )
{
  cli();                                          // read and clear atomic !
     454:	f8 94       	cli
  key_mask &= key_rpt;                            // read key(s)
     456:	80 91 5d 05 	lds	r24, 0x055D
     45a:	98 23       	and	r25, r24
  key_rpt ^= key_mask;                            // clear key(s)
     45c:	80 91 5d 05 	lds	r24, 0x055D
     460:	89 27       	eor	r24, r25
     462:	80 93 5d 05 	sts	0x055D, r24
  sei();
     466:	78 94       	sei
// check if a key has been pressed. Each pressed key is reported
// only once
//
uint8_t get_key_press( uint8_t key_mask )
{
  cli();                                          // read and clear atomic !
     468:	f8 94       	cli
  key_mask &= key_press;                          // read key(s)
     46a:	80 91 c2 05 	lds	r24, 0x05C2
     46e:	89 23       	and	r24, r25
  key_press ^= key_mask;                          // clear key(s)
     470:	90 91 c2 05 	lds	r25, 0x05C2
     474:	98 27       	eor	r25, r24
     476:	90 93 c2 05 	sts	0x05C2, r25
  sei();
     47a:	78 94       	sei
///////////////////////////////////////////////////////////////////
//
uint8_t get_key_long( uint8_t key_mask )
{
  return get_key_press( get_key_rpt( key_mask ));
}
     47c:	08 95       	ret

0000047e <led_spielerein>:
	_delay_ms(500);
	lcd_my_type("Be a Honey Bee!\n");
	_delay_ms(600);
	lcd_clrscr();
}
void 	led_spielerein		(void) {
     47e:	41 e0       	ldi	r20, 0x01	; 1
     480:	50 e0       	ldi	r21, 0x00	; 0
    milliseconds can be achieved.
 */
void
_delay_loop_2(uint16_t __count)
{
	__asm__ volatile (
     482:	a8 ec       	ldi	r26, 0xC8	; 200
     484:	b0 e0       	ldi	r27, 0x00	; 0

	for (int i = 1; i < 9; i++) // LEDs durchlaufen
	{
		_delay_ms(80); // Eine Sekunde +/-1/10000 Sekunde warten...
		LED_PORT &= ~((1 << i)); // löscht Bit an PortB - LED an
     486:	61 e0       	ldi	r22, 0x01	; 1
     488:	70 e0       	ldi	r23, 0x00	; 0
     48a:	21 c0       	rjmp	.+66     	; 0x4ce <led_spielerein+0x50>
     48c:	fd 01       	movw	r30, r26
     48e:	31 97       	sbiw	r30, 0x01	; 1
     490:	f1 f7       	brne	.-4      	; 0x48e <led_spielerein+0x10>
		__ticks = (uint16_t) (__ms * 10.0);
		while(__ticks)
		{
			// wait 1/10 ms
			_delay_loop_2(((F_CPU) / 4e3) / 10);
			__ticks --;
     492:	01 97       	sbiw	r24, 0x01	; 1
		__ticks = 1;
	else if (__tmp > 65535)
	{
		//	__ticks = requested delay in 1/10 ms
		__ticks = (uint16_t) (__ms * 10.0);
		while(__ticks)
     494:	d9 f7       	brne	.-10     	; 0x48c <led_spielerein+0xe>
     496:	25 b1       	in	r18, 0x05	; 5
     498:	cb 01       	movw	r24, r22
     49a:	04 2e       	mov	r0, r20
     49c:	02 c0       	rjmp	.+4      	; 0x4a2 <led_spielerein+0x24>
     49e:	88 0f       	add	r24, r24
     4a0:	99 1f       	adc	r25, r25
     4a2:	0a 94       	dec	r0
     4a4:	e2 f7       	brpl	.-8      	; 0x49e <led_spielerein+0x20>
     4a6:	80 95       	com	r24
     4a8:	82 23       	and	r24, r18
     4aa:	85 b9       	out	0x05, r24	; 5
		LED_PORT |= ((1 << (i - 1))); // setzt  Bit an PortB - LED aus
     4ac:	25 b1       	in	r18, 0x05	; 5
     4ae:	41 50       	subi	r20, 0x01	; 1
     4b0:	50 40       	sbci	r21, 0x00	; 0
     4b2:	cb 01       	movw	r24, r22
     4b4:	04 2e       	mov	r0, r20
     4b6:	02 c0       	rjmp	.+4      	; 0x4bc <led_spielerein+0x3e>
     4b8:	88 0f       	add	r24, r24
     4ba:	99 1f       	adc	r25, r25
     4bc:	0a 94       	dec	r0
     4be:	e2 f7       	brpl	.-8      	; 0x4b8 <led_spielerein+0x3a>
     4c0:	28 2b       	or	r18, r24
     4c2:	25 b9       	out	0x05, r18	; 5
	_delay_ms(600);
	lcd_clrscr();
}
void 	led_spielerein		(void) {

	for (int i = 1; i < 9; i++) // LEDs durchlaufen
     4c4:	4e 5f       	subi	r20, 0xFE	; 254
     4c6:	5f 4f       	sbci	r21, 0xFF	; 255
     4c8:	49 30       	cpi	r20, 0x09	; 9
     4ca:	51 05       	cpc	r21, r1
     4cc:	19 f0       	breq	.+6      	; 0x4d4 <led_spielerein+0x56>
     4ce:	80 e2       	ldi	r24, 0x20	; 32
     4d0:	93 e0       	ldi	r25, 0x03	; 3
     4d2:	dc cf       	rjmp	.-72     	; 0x48c <led_spielerein+0xe>
     4d4:	08 95       	ret

000004d6 <debounce_init>:
}
void 	debounce_init		(void) {
	///////////////// Debounce Stuff ////////////////////

	// Configure debouncing routines
	KEY_DDR &= ~ALL_KEYS; // configure key port for input
     4d6:	81 b1       	in	r24, 0x01	; 1
     4d8:	11 b8       	out	0x01, r1	; 1
	KEY_PORT |= ALL_KEYS; // and turn on pull up resistors
     4da:	82 b1       	in	r24, 0x02	; 2
     4dc:	8f ef       	ldi	r24, 0xFF	; 255
     4de:	82 b9       	out	0x02, r24	; 2

	TCCR0B = (1 << CS02) | (1 << CS00); // divide by 1024
     4e0:	85 e0       	ldi	r24, 0x05	; 5
     4e2:	85 bd       	out	0x25, r24	; 37
	TCNT0 = (uint8_t) (int16_t) -(F_CPU / 1024 * 10 * 10e-3 + 0.5); // preload for 10ms
     4e4:	83 ef       	ldi	r24, 0xF3	; 243
     4e6:	86 bd       	out	0x26, r24	; 38
	TIMSK0 |= 1 << TOIE0; // enable timer interrupt
     4e8:	ee e6       	ldi	r30, 0x6E	; 110
     4ea:	f0 e0       	ldi	r31, 0x00	; 0
     4ec:	80 81       	ld	r24, Z
     4ee:	81 60       	ori	r24, 0x01	; 1
     4f0:	80 83       	st	Z, r24

	sei();
     4f2:	78 94       	sei
	///////////////// Debounce Stuff ////////////////////
}
     4f4:	08 95       	ret

000004f6 <led_lauflicht>:
void 	led_lauflicht		(void) {
	uint8_t i = LED_PORT;
     4f6:	85 b1       	in	r24, 0x05	; 5
	i = (i & 0x07) | ((i << 1) & 0xF0);
     4f8:	98 2f       	mov	r25, r24
     4fa:	99 0f       	add	r25, r25
     4fc:	90 7f       	andi	r25, 0xF0	; 240
     4fe:	87 70       	andi	r24, 0x07	; 7
     500:	98 2b       	or	r25, r24
	if (i < 0xF0)
     502:	90 3f       	cpi	r25, 0xF0	; 240
     504:	08 f4       	brcc	.+2      	; 0x508 <led_lauflicht+0x12>
		i |= 0x08;
     506:	98 60       	ori	r25, 0x08	; 8
	LED_PORT = i;
     508:	95 b9       	out	0x05, r25	; 5
}
     50a:	08 95       	ret

0000050c <init_WDT>:
}
#include "mymenu.h"*/

// Init Stuff
void init_WDT(void) {
	cli();
     50c:	f8 94       	cli
	wdt_reset();
     50e:	a8 95       	wdr
	WDTCSR |= (1 << WDCE) | (1 << WDE);
     510:	e0 e6       	ldi	r30, 0x60	; 96
     512:	f0 e0       	ldi	r31, 0x00	; 0
     514:	80 81       	ld	r24, Z
     516:	88 61       	ori	r24, 0x18	; 24
     518:	80 83       	st	Z, r24
	WDTCSR = (1 << WDE) | (1 << WDIE) | (1 << WDP3) | (1 << WDP0); //Watchdog 8s
     51a:	89 e6       	ldi	r24, 0x69	; 105
     51c:	80 83       	st	Z, r24
	//WDTCSR = 0x0F; //Watchdog Off
	sei();
     51e:	78 94       	sei
}
     520:	08 95       	ret

00000522 <__vector_8>:
//////////////////////////////

// Interrupt Stuff
ISR(WDT_vect)
//Interrupt Service Routine
{
     522:	1f 92       	push	r1
     524:	0f 92       	push	r0
     526:	0f b6       	in	r0, 0x3f	; 63
     528:	0f 92       	push	r0
     52a:	11 24       	eor	r1, r1
     52c:	8f 93       	push	r24
     52e:	9f 93       	push	r25
		LED_PORT ^= (1 << LED0);
     530:	85 b1       	in	r24, 0x05	; 5
     532:	91 e0       	ldi	r25, 0x01	; 1
     534:	89 27       	eor	r24, r25
     536:	85 b9       	out	0x05, r24	; 5
}
     538:	9f 91       	pop	r25
     53a:	8f 91       	pop	r24
     53c:	0f 90       	pop	r0
     53e:	0f be       	out	0x3f, r0	; 63
     540:	0f 90       	pop	r0
     542:	1f 90       	pop	r1
     544:	18 95       	reti

00000546 <uart_init>:
	LED_PORT ^= (1 << LED0);
}
// UART Stuff
void 	uart_init			() {
	// UART 0 - IN (Rapidform Software/Terminal)
	UBRR0H = UBRRH_VALUE;
     546:	10 92 c5 00 	sts	0x00C5, r1
	UBRR0L = UBRRL_VALUE;
     54a:	23 e3       	ldi	r18, 0x33	; 51
     54c:	20 93 c4 00 	sts	0x00C4, r18
	UCSR0C = (3 << UCSZ00);
     550:	96 e0       	ldi	r25, 0x06	; 6
     552:	90 93 c2 00 	sts	0x00C2, r25
	UCSR0B |= (1 << TXEN0); //Transmitter Enabled
     556:	e1 ec       	ldi	r30, 0xC1	; 193
     558:	f0 e0       	ldi	r31, 0x00	; 0
     55a:	80 81       	ld	r24, Z
     55c:	88 60       	ori	r24, 0x08	; 8
     55e:	80 83       	st	Z, r24
	UCSR0B |= (1 << RXEN0); // UART RX einschalten
     560:	80 81       	ld	r24, Z
     562:	80 61       	ori	r24, 0x10	; 16
     564:	80 83       	st	Z, r24

	// UART 1 - OUT (Stepper Karte/Drehtisch)
	UBRR1H = UBRRH_VALUE;
     566:	10 92 cd 00 	sts	0x00CD, r1
	UBRR1L = UBRRL_VALUE;
     56a:	20 93 cc 00 	sts	0x00CC, r18
	UCSR1C = (3 << UCSZ00);
     56e:	90 93 ca 00 	sts	0x00CA, r25
	UCSR1B |= (1 << TXEN1); //Transmitter Enabled
     572:	e9 ec       	ldi	r30, 0xC9	; 201
     574:	f0 e0       	ldi	r31, 0x00	; 0
     576:	80 81       	ld	r24, Z
     578:	88 60       	ori	r24, 0x08	; 8
     57a:	80 83       	st	Z, r24
	UCSR1B |= (1 << RXEN1); // UART RX einschalten
     57c:	80 81       	ld	r24, Z
     57e:	80 61       	ori	r24, 0x10	; 16
     580:	80 83       	st	Z, r24

}
     582:	08 95       	ret

00000584 <uart_put_charater>:
void 	uart_put_charater	(unsigned char c, int dir) {
     584:	98 2f       	mov	r25, r24
	// To Rapidform
	if (dir == D_RapidForm) {
     586:	67 2b       	or	r22, r23
     588:	39 f4       	brne	.+14     	; 0x598 <uart_put_charater+0x14>
		while (!(UCSR0A & (1 << UDRE0))) //warten bis Senden moeglich
     58a:	80 91 c0 00 	lds	r24, 0x00C0
     58e:	85 ff       	sbrs	r24, 5
     590:	fc cf       	rjmp	.-8      	; 0x58a <uart_put_charater+0x6>
		{
		}
		UDR0 = c; // sende Zeichen
     592:	90 93 c6 00 	sts	0x00C6, r25
     596:	08 95       	ret
	}
	// To Stepper
	else {
		while (!(UCSR1A & (1 << UDRE1))) //warten bis Senden moeglich
     598:	80 91 c8 00 	lds	r24, 0x00C8
     59c:	85 ff       	sbrs	r24, 5
     59e:	fc cf       	rjmp	.-8      	; 0x598 <uart_put_charater+0x14>
		{
		}
		UDR1 = c; // sende Zeichen
     5a0:	90 93 ce 00 	sts	0x00CE, r25
     5a4:	08 95       	ret

000005a6 <uart_put_string>:
	}
	//return 0;
}
void 	uart_put_string		(char *s, int dir) {
     5a6:	0f 93       	push	r16
     5a8:	1f 93       	push	r17
     5aa:	cf 93       	push	r28
     5ac:	df 93       	push	r29
     5ae:	ec 01       	movw	r28, r24
     5b0:	8b 01       	movw	r16, r22
     5b2:	04 c0       	rjmp	.+8      	; 0x5bc <uart_put_string+0x16>
	while (*s) // so lange *s != '\0' also ungleich dem "String-Endezeichen(Terminator)"
	{
		uart_put_charater(*s, dir);
     5b4:	b8 01       	movw	r22, r16
     5b6:	0e 94 c2 02 	call	0x584	; 0x584 <uart_put_charater>
		s++;
     5ba:	21 96       	adiw	r28, 0x01	; 1
		UDR1 = c; // sende Zeichen
	}
	//return 0;
}
void 	uart_put_string		(char *s, int dir) {
	while (*s) // so lange *s != '\0' also ungleich dem "String-Endezeichen(Terminator)"
     5bc:	88 81       	ld	r24, Y
     5be:	88 23       	and	r24, r24
     5c0:	c9 f7       	brne	.-14     	; 0x5b4 <uart_put_string+0xe>
	{
		uart_put_charater(*s, dir);
		s++;
	}
}
     5c2:	df 91       	pop	r29
     5c4:	cf 91       	pop	r28
     5c6:	1f 91       	pop	r17
     5c8:	0f 91       	pop	r16
     5ca:	08 95       	ret

000005cc <__vector_7>:
{
		LED_PORT ^= (1 << LED0);
}
ISR(PCINT3_vect)
//Interrupt Service Routine
{
     5cc:	1f 92       	push	r1
     5ce:	0f 92       	push	r0
     5d0:	0f b6       	in	r0, 0x3f	; 63
     5d2:	0f 92       	push	r0
     5d4:	11 24       	eor	r1, r1
     5d6:	2f 93       	push	r18
     5d8:	3f 93       	push	r19
     5da:	4f 93       	push	r20
     5dc:	5f 93       	push	r21
     5de:	6f 93       	push	r22
     5e0:	7f 93       	push	r23
     5e2:	8f 93       	push	r24
     5e4:	9f 93       	push	r25
     5e6:	af 93       	push	r26
     5e8:	bf 93       	push	r27
     5ea:	ef 93       	push	r30
     5ec:	ff 93       	push	r31
	//led_lauflicht();
	//uart_put_string("2H\n", D_Stepper);
	uart_put_string("1H\n", D_Stepper);
     5ee:	80 e0       	ldi	r24, 0x00	; 0
     5f0:	91 e0       	ldi	r25, 0x01	; 1
     5f2:	61 e0       	ldi	r22, 0x01	; 1
     5f4:	70 e0       	ldi	r23, 0x00	; 0
     5f6:	0e 94 d3 02 	call	0x5a6	; 0x5a6 <uart_put_string>
	LED_PORT ^= (1 << LED0);
     5fa:	85 b1       	in	r24, 0x05	; 5
     5fc:	91 e0       	ldi	r25, 0x01	; 1
     5fe:	89 27       	eor	r24, r25
     600:	85 b9       	out	0x05, r24	; 5
}
     602:	ff 91       	pop	r31
     604:	ef 91       	pop	r30
     606:	bf 91       	pop	r27
     608:	af 91       	pop	r26
     60a:	9f 91       	pop	r25
     60c:	8f 91       	pop	r24
     60e:	7f 91       	pop	r23
     610:	6f 91       	pop	r22
     612:	5f 91       	pop	r21
     614:	4f 91       	pop	r20
     616:	3f 91       	pop	r19
     618:	2f 91       	pop	r18
     61a:	0f 90       	pop	r0
     61c:	0f be       	out	0x3f, r0	; 63
     61e:	0f 90       	pop	r0
     620:	1f 90       	pop	r1
     622:	18 95       	reti

00000624 <uart_get_character>:
		uart_put_charater(*s, dir);
		s++;
	}
}
int 	uart_get_character	(int dir) {
	if (dir == D_RapidForm) {
     624:	00 97       	sbiw	r24, 0x00	; 0
     626:	39 f4       	brne	.+14     	; 0x636 <uart_get_character+0x12>
		while (!(UCSR0A & (1 << RXC0)))
     628:	80 91 c0 00 	lds	r24, 0x00C0
     62c:	87 ff       	sbrs	r24, 7
     62e:	fc cf       	rjmp	.-8      	; 0x628 <uart_get_character+0x4>
			// warten bis Zeichen verfuegbar
			;
		return UDR0; // Zeichen aus UDR an Aufrufer zurueckgeben
     630:	80 91 c6 00 	lds	r24, 0x00C6
     634:	0b c0       	rjmp	.+22     	; 0x64c <uart_get_character+0x28>
	}
	if (dir == D_Stepper) {
     636:	01 97       	sbiw	r24, 0x01	; 1
     638:	19 f0       	breq	.+6      	; 0x640 <uart_get_character+0x1c>
     63a:	2f ef       	ldi	r18, 0xFF	; 255
     63c:	3f ef       	ldi	r19, 0xFF	; 255
     63e:	08 c0       	rjmp	.+16     	; 0x650 <uart_get_character+0x2c>
		while (!(UCSR1A & (1 << RXC1)))
     640:	80 91 c8 00 	lds	r24, 0x00C8
     644:	87 ff       	sbrs	r24, 7
     646:	fc cf       	rjmp	.-8      	; 0x640 <uart_get_character+0x1c>
			// warten bis Zeichen verfuegbar
			;
		return UDR1; // Zeichen aus UDR an Aufrufer zurueckgeben
     648:	80 91 ce 00 	lds	r24, 0x00CE
     64c:	28 2f       	mov	r18, r24
     64e:	30 e0       	ldi	r19, 0x00	; 0
	}
	return -1;
}
     650:	c9 01       	movw	r24, r18
     652:	08 95       	ret

00000654 <uart_get_string>:
void 	uart_get_string		(char * string_in, int dir) {
     654:	ef 92       	push	r14
     656:	ff 92       	push	r15
     658:	0f 93       	push	r16
     65a:	1f 93       	push	r17
     65c:	cf 93       	push	r28
     65e:	df 93       	push	r29
     660:	8c 01       	movw	r16, r24
     662:	7b 01       	movw	r14, r22
     664:	c0 e0       	ldi	r28, 0x00	; 0
     666:	d0 e0       	ldi	r29, 0x00	; 0
	char c;
	int i = 0;
	do {
		c = uart_get_character(dir);
     668:	c7 01       	movw	r24, r14
     66a:	0e 94 12 03 	call	0x624	; 0x624 <uart_get_character>
		if (c != '\r') {
     66e:	8d 30       	cpi	r24, 0x0D	; 13
     670:	21 f0       	breq	.+8      	; 0x67a <uart_get_string+0x26>
			*string_in = c;
     672:	f8 01       	movw	r30, r16
     674:	81 93       	st	Z+, r24
     676:	8f 01       	movw	r16, r30
			string_in += 1;
			i++;
     678:	21 96       	adiw	r28, 0x01	; 1
		}
	} while (i < 100 && c != '\r' && c != '\n');
     67a:	c4 36       	cpi	r28, 0x64	; 100
     67c:	d1 05       	cpc	r29, r1
     67e:	24 f4       	brge	.+8      	; 0x688 <uart_get_string+0x34>
     680:	8d 30       	cpi	r24, 0x0D	; 13
     682:	11 f0       	breq	.+4      	; 0x688 <uart_get_string+0x34>
     684:	8a 30       	cpi	r24, 0x0A	; 10
     686:	81 f7       	brne	.-32     	; 0x668 <uart_get_string+0x14>
	*string_in = '\0';
     688:	f8 01       	movw	r30, r16
     68a:	10 82       	st	Z, r1
}
     68c:	df 91       	pop	r29
     68e:	cf 91       	pop	r28
     690:	1f 91       	pop	r17
     692:	0f 91       	pop	r16
     694:	ff 90       	pop	r15
     696:	ef 90       	pop	r14
     698:	08 95       	ret

0000069a <csg_Status_melden>:
// Hilfs Funktionen
void 	csg_Status_melden	() {
	int k = 0;
	if (blub < 100000)
		k = 5;
	if (blub < 10000)
     69a:	20 91 54 05 	lds	r18, 0x0554
     69e:	30 91 55 05 	lds	r19, 0x0555
     6a2:	87 e2       	ldi	r24, 0x27	; 39
     6a4:	20 31       	cpi	r18, 0x10	; 16
     6a6:	38 07       	cpc	r19, r24
     6a8:	0c f0       	brlt	.+2      	; 0x6ac <csg_Status_melden+0x12>
     6aa:	47 c0       	rjmp	.+142    	; 0x73a <csg_Status_melden+0xa0>
		k = 4;
	if (blub < 1000)
     6ac:	83 e0       	ldi	r24, 0x03	; 3
     6ae:	28 3e       	cpi	r18, 0xE8	; 232
     6b0:	38 07       	cpc	r19, r24
     6b2:	1c f0       	brlt	.+6      	; 0x6ba <csg_Status_melden+0x20>
     6b4:	84 e0       	ldi	r24, 0x04	; 4
     6b6:	90 e0       	ldi	r25, 0x00	; 0
     6b8:	14 c0       	rjmp	.+40     	; 0x6e2 <csg_Status_melden+0x48>
		k = 3;
	if (blub < 100)
     6ba:	24 36       	cpi	r18, 0x64	; 100
     6bc:	31 05       	cpc	r19, r1
     6be:	1c f0       	brlt	.+6      	; 0x6c6 <csg_Status_melden+0x2c>
     6c0:	83 e0       	ldi	r24, 0x03	; 3
     6c2:	90 e0       	ldi	r25, 0x00	; 0
     6c4:	0e c0       	rjmp	.+28     	; 0x6e2 <csg_Status_melden+0x48>
		k = 2;
	if (blub < 10)
     6c6:	2a 30       	cpi	r18, 0x0A	; 10
     6c8:	31 05       	cpc	r19, r1
     6ca:	1c f0       	brlt	.+6      	; 0x6d2 <csg_Status_melden+0x38>
     6cc:	82 e0       	ldi	r24, 0x02	; 2
     6ce:	90 e0       	ldi	r25, 0x00	; 0
     6d0:	08 c0       	rjmp	.+16     	; 0x6e2 <csg_Status_melden+0x48>
		k = 1;
	if (blub == 0)
     6d2:	21 15       	cp	r18, r1
     6d4:	31 05       	cpc	r19, r1
     6d6:	19 f4       	brne	.+6      	; 0x6de <csg_Status_melden+0x44>
     6d8:	80 e0       	ldi	r24, 0x00	; 0
     6da:	90 e0       	ldi	r25, 0x00	; 0
     6dc:	02 c0       	rjmp	.+4      	; 0x6e2 <csg_Status_melden+0x48>
     6de:	81 e0       	ldi	r24, 0x01	; 1
     6e0:	90 e0       	ldi	r25, 0x00	; 0
		k = 0;
	blub++;
     6e2:	2f 5f       	subi	r18, 0xFF	; 255
     6e4:	3f 4f       	sbci	r19, 0xFF	; 255
     6e6:	30 93 55 05 	sts	0x0555, r19
     6ea:	20 93 54 05 	sts	0x0554, r18
	switch (k) {
     6ee:	81 30       	cpi	r24, 0x01	; 1
     6f0:	91 05       	cpc	r25, r1
     6f2:	99 f0       	breq	.+38     	; 0x71a <csg_Status_melden+0x80>
     6f4:	82 30       	cpi	r24, 0x02	; 2
     6f6:	91 05       	cpc	r25, r1
     6f8:	1c f4       	brge	.+6      	; 0x700 <csg_Status_melden+0x66>
     6fa:	89 2b       	or	r24, r25
     6fc:	39 f0       	breq	.+14     	; 0x70c <csg_Status_melden+0x72>
     6fe:	1a c0       	rjmp	.+52     	; 0x734 <csg_Status_melden+0x9a>
     700:	82 30       	cpi	r24, 0x02	; 2
     702:	91 05       	cpc	r25, r1
     704:	69 f0       	breq	.+26     	; 0x720 <csg_Status_melden+0x86>
     706:	03 97       	sbiw	r24, 0x03	; 3
     708:	a9 f4       	brne	.+42     	; 0x734 <csg_Status_melden+0x9a>
     70a:	0d c0       	rjmp	.+26     	; 0x726 <csg_Status_melden+0x8c>
	case 0:
		lcd_puts("Status gemeldet!");
     70c:	84 e0       	ldi	r24, 0x04	; 4
     70e:	91 e0       	ldi	r25, 0x01	; 1
     710:	0e 94 65 01 	call	0x2ca	; 0x2ca <lcd_puts>
		uart_put_string("         0,         0,K,K,R\r\n", D_RapidForm);			// Status an RapidForm zurückmelden
     714:	85 e1       	ldi	r24, 0x15	; 21
     716:	91 e0       	ldi	r25, 0x01	; 1
     718:	08 c0       	rjmp	.+16     	; 0x72a <csg_Status_melden+0x90>
		break;
	case 1:
		uart_put_string("         9,         0,K,K,R\r\n", D_RapidForm);			// Status an RapidForm zurückmelden
     71a:	83 e3       	ldi	r24, 0x33	; 51
     71c:	91 e0       	ldi	r25, 0x01	; 1
     71e:	05 c0       	rjmp	.+10     	; 0x72a <csg_Status_melden+0x90>
		break;
	case 2:
		uart_put_string("        99,         0,K,K,R\r\n", D_RapidForm);			// Status an RapidForm zurückmelden
     720:	81 e5       	ldi	r24, 0x51	; 81
     722:	91 e0       	ldi	r25, 0x01	; 1
     724:	02 c0       	rjmp	.+4      	; 0x72a <csg_Status_melden+0x90>
		break;
	case 3:
		uart_put_string("       999,         0,K,K,R\r\n", D_RapidForm);			// Status an RapidForm zurückmelden
     726:	8f e6       	ldi	r24, 0x6F	; 111
     728:	91 e0       	ldi	r25, 0x01	; 1
     72a:	60 e0       	ldi	r22, 0x00	; 0
     72c:	70 e0       	ldi	r23, 0x00	; 0
     72e:	0e 94 d3 02 	call	0x5a6	; 0x5a6 <uart_put_string>
     732:	08 95       	ret
		break;
	default:
		uart_put_string(" 999999999,         0,K,K,R\r\n", D_RapidForm); // Status an RapidForm zurückmelden
     734:	8d e8       	ldi	r24, 0x8D	; 141
     736:	91 e0       	ldi	r25, 0x01	; 1
     738:	f8 cf       	rjmp	.-16     	; 0x72a <csg_Status_melden+0x90>
	}
}
     73a:	85 e0       	ldi	r24, 0x05	; 5
     73c:	90 e0       	ldi	r25, 0x00	; 0
     73e:	d1 cf       	rjmp	.-94     	; 0x6e2 <csg_Status_melden+0x48>

00000740 <String_zerlegen_csg>:
	ltoa(z,Position,10);
	//lcd_puts("Position: ");
	//lcd_puts(Position);
	//lcd_puts("\n");
}
void 	String_zerlegen_csg	(char * str_rx) {
     740:	cf 92       	push	r12
     742:	df 92       	push	r13
     744:	ef 92       	push	r14
     746:	ff 92       	push	r15
     748:	0f 93       	push	r16
     74a:	1f 93       	push	r17
     74c:	df 93       	push	r29
     74e:	cf 93       	push	r28
     750:	cd b7       	in	r28, 0x3d	; 61
     752:	de b7       	in	r29, 0x3e	; 62
     754:	61 97       	sbiw	r28, 0x11	; 17
     756:	0f b6       	in	r0, 0x3f	; 63
     758:	f8 94       	cli
     75a:	de bf       	out	0x3e, r29	; 62
     75c:	0f be       	out	0x3f, r0	; 63
     75e:	cd bf       	out	0x3d, r28	; 61
     760:	6c 01       	movw	r12, r24
	int i = 4; // Index Input String | Bei 4. Zeichen Beginnen. Die ersten 3 Zeichen sind Fix.
	int j = 0; // Index Variable
	char c; // Zu kopierendes Zeichen
	// Variablen Deklaration und Initialisierung mit Defaultwerten
	char Speed_Range[2] = "2";
	char ONE_Min_Speed[6] = "200";
     762:	82 e3       	ldi	r24, 0x32	; 50
     764:	90 e3       	ldi	r25, 0x30	; 48
     766:	a0 e3       	ldi	r26, 0x30	; 48
     768:	b0 e0       	ldi	r27, 0x00	; 0
     76a:	8e 83       	std	Y+6, r24	; 0x06
     76c:	9f 83       	std	Y+7, r25	; 0x07
     76e:	a8 87       	std	Y+8, r26	; 0x08
     770:	b9 87       	std	Y+9, r27	; 0x09
     772:	1b 86       	std	Y+11, r1	; 0x0b
     774:	1a 86       	std	Y+10, r1	; 0x0a
	char ONE_Max_Speed[6] = "2000";
     776:	de 01       	movw	r26, r28
     778:	1c 96       	adiw	r26, 0x0c	; 12
     77a:	e8 ed       	ldi	r30, 0xD8	; 216
     77c:	f1 e0       	ldi	r31, 0x01	; 1
     77e:	85 e0       	ldi	r24, 0x05	; 5
     780:	01 90       	ld	r0, Z+
     782:	0d 92       	st	X+, r0
     784:	81 50       	subi	r24, 0x01	; 1
     786:	e1 f7       	brne	.-8      	; 0x780 <String_zerlegen_csg+0x40>
     788:	19 8a       	std	Y+17, r1	; 0x11
	char ONE_Acc_Speed[5] = "200";
     78a:	82 e3       	ldi	r24, 0x32	; 50
     78c:	90 e3       	ldi	r25, 0x30	; 48
     78e:	a0 e3       	ldi	r26, 0x30	; 48
     790:	b0 e0       	ldi	r27, 0x00	; 0
     792:	89 83       	std	Y+1, r24	; 0x01
     794:	9a 83       	std	Y+2, r25	; 0x02
     796:	ab 83       	std	Y+3, r26	; 0x03
     798:	bc 83       	std	Y+4, r27	; 0x04
     79a:	1d 82       	std	Y+5, r1	; 0x05
     79c:	84 e0       	ldi	r24, 0x04	; 4
     79e:	e8 2e       	mov	r14, r24
     7a0:	f1 2c       	mov	r15, r1
     7a2:	a0 e0       	ldi	r26, 0x00	; 0
     7a4:	b0 e0       	ldi	r27, 0x00	; 0
	//
	////////////////////////
	do {
		c = str_rx[i];
		if (c != 'F') {
			ONE_Min_Speed[j] = c;
     7a6:	9e 01       	movw	r18, r28
     7a8:	2a 5f       	subi	r18, 0xFA	; 250
     7aa:	3f 4f       	sbci	r19, 0xFF	; 255
	//
	//  Min Speed (50 - 20000)
	//
	////////////////////////
	do {
		c = str_rx[i];
     7ac:	f6 01       	movw	r30, r12
     7ae:	ee 0d       	add	r30, r14
     7b0:	ff 1d       	adc	r31, r15
     7b2:	80 81       	ld	r24, Z
		if (c != 'F') {
     7b4:	86 34       	cpi	r24, 0x46	; 70
     7b6:	41 f0       	breq	.+16     	; 0x7c8 <String_zerlegen_csg+0x88>
			ONE_Min_Speed[j] = c;
     7b8:	f9 01       	movw	r30, r18
     7ba:	ea 0f       	add	r30, r26
     7bc:	fb 1f       	adc	r31, r27
     7be:	80 83       	st	Z, r24
			j++;
     7c0:	11 96       	adiw	r26, 0x01	; 1
			i++;
     7c2:	08 94       	sec
     7c4:	e1 1c       	adc	r14, r1
     7c6:	f1 1c       	adc	r15, r1
		}
	} while (j < 6 && c != '\0' && c != 'F');
     7c8:	a6 30       	cpi	r26, 0x06	; 6
     7ca:	b1 05       	cpc	r27, r1
     7cc:	24 f4       	brge	.+8      	; 0x7d6 <String_zerlegen_csg+0x96>
     7ce:	88 23       	and	r24, r24
     7d0:	11 f0       	breq	.+4      	; 0x7d6 <String_zerlegen_csg+0x96>
     7d2:	86 34       	cpi	r24, 0x46	; 70
     7d4:	59 f7       	brne	.-42     	; 0x7ac <String_zerlegen_csg+0x6c>
	ONE_Min_Speed[j] = '\0';
     7d6:	8e 01       	movw	r16, r28
     7d8:	0a 5f       	subi	r16, 0xFA	; 250
     7da:	1f 4f       	sbci	r17, 0xFF	; 255
     7dc:	a0 0f       	add	r26, r16
     7de:	b1 1f       	adc	r27, r17
     7e0:	1c 92       	st	X, r1

	lcd_puts("1_MIN_SPEED:");
     7e2:	8b ea       	ldi	r24, 0xAB	; 171
     7e4:	91 e0       	ldi	r25, 0x01	; 1
     7e6:	0e 94 65 01 	call	0x2ca	; 0x2ca <lcd_puts>
	lcd_puts(ONE_Min_Speed);
     7ea:	c8 01       	movw	r24, r16
     7ec:	0e 94 65 01 	call	0x2ca	; 0x2ca <lcd_puts>
	lcd_puts("\n");
     7f0:	88 eb       	ldi	r24, 0xB8	; 184
     7f2:	91 e0       	ldi	r25, 0x01	; 1
     7f4:	0e 94 65 01 	call	0x2ca	; 0x2ca <lcd_puts>
	////////////////////////
	//
	//  Max Speed (50 - 20000)
	//
	////////////////////////
	i++; // Stuerzeichen überspringen
     7f8:	08 94       	sec
     7fa:	e1 1c       	adc	r14, r1
     7fc:	f1 1c       	adc	r15, r1
     7fe:	a0 e0       	ldi	r26, 0x00	; 0
     800:	b0 e0       	ldi	r27, 0x00	; 0
	j = 0; // Variablenzähler zurücksetzen
	do {
		c = str_rx[i];
		if (c != 'R') {
			ONE_Max_Speed[j] = c;
     802:	9e 01       	movw	r18, r28
     804:	24 5f       	subi	r18, 0xF4	; 244
     806:	3f 4f       	sbci	r19, 0xFF	; 255
	//
	////////////////////////
	i++; // Stuerzeichen überspringen
	j = 0; // Variablenzähler zurücksetzen
	do {
		c = str_rx[i];
     808:	f6 01       	movw	r30, r12
     80a:	ee 0d       	add	r30, r14
     80c:	ff 1d       	adc	r31, r15
     80e:	80 81       	ld	r24, Z
		if (c != 'R') {
     810:	82 35       	cpi	r24, 0x52	; 82
     812:	41 f0       	breq	.+16     	; 0x824 <String_zerlegen_csg+0xe4>
			ONE_Max_Speed[j] = c;
     814:	f9 01       	movw	r30, r18
     816:	ea 0f       	add	r30, r26
     818:	fb 1f       	adc	r31, r27
     81a:	80 83       	st	Z, r24
			i++;
     81c:	08 94       	sec
     81e:	e1 1c       	adc	r14, r1
     820:	f1 1c       	adc	r15, r1
			j++;
     822:	11 96       	adiw	r26, 0x01	; 1
		}
	} while (j < 6 && c != '\0' && c != 'R');
     824:	a6 30       	cpi	r26, 0x06	; 6
     826:	b1 05       	cpc	r27, r1
     828:	24 f4       	brge	.+8      	; 0x832 <String_zerlegen_csg+0xf2>
     82a:	88 23       	and	r24, r24
     82c:	11 f0       	breq	.+4      	; 0x832 <String_zerlegen_csg+0xf2>
     82e:	82 35       	cpi	r24, 0x52	; 82
     830:	59 f7       	brne	.-42     	; 0x808 <String_zerlegen_csg+0xc8>
	ONE_Max_Speed[j] = '\0';
     832:	8e 01       	movw	r16, r28
     834:	04 5f       	subi	r16, 0xF4	; 244
     836:	1f 4f       	sbci	r17, 0xFF	; 255
     838:	a0 0f       	add	r26, r16
     83a:	b1 1f       	adc	r27, r17
     83c:	1c 92       	st	X, r1

	lcd_puts("1_MAX_SPEED:");
     83e:	8a eb       	ldi	r24, 0xBA	; 186
     840:	91 e0       	ldi	r25, 0x01	; 1
     842:	0e 94 65 01 	call	0x2ca	; 0x2ca <lcd_puts>
	lcd_puts(ONE_Max_Speed);
     846:	c8 01       	movw	r24, r16
     848:	0e 94 65 01 	call	0x2ca	; 0x2ca <lcd_puts>
	lcd_puts("\n");
     84c:	88 eb       	ldi	r24, 0xB8	; 184
     84e:	91 e0       	ldi	r25, 0x01	; 1
     850:	0e 94 65 01 	call	0x2ca	; 0x2ca <lcd_puts>
	////////////////////////
	//
	//  Acceleration (0 - 1000)
	//
	////////////////////////
	i++; // Stuerzeichen überspringen
     854:	c7 01       	movw	r24, r14
     856:	01 96       	adiw	r24, 0x01	; 1
     858:	a0 e0       	ldi	r26, 0x00	; 0
     85a:	b0 e0       	ldi	r27, 0x00	; 0
	j = 0; // Variablenzähler zurücksetzen
	do {
		c = str_rx[i];
		if (c != 'S') {
			ONE_Acc_Speed[j] = c;
     85c:	ae 01       	movw	r20, r28
     85e:	4f 5f       	subi	r20, 0xFF	; 255
     860:	5f 4f       	sbci	r21, 0xFF	; 255
	//
	////////////////////////
	i++; // Stuerzeichen überspringen
	j = 0; // Variablenzähler zurücksetzen
	do {
		c = str_rx[i];
     862:	f6 01       	movw	r30, r12
     864:	e8 0f       	add	r30, r24
     866:	f9 1f       	adc	r31, r25
     868:	20 81       	ld	r18, Z
		if (c != 'S') {
     86a:	23 35       	cpi	r18, 0x53	; 83
     86c:	31 f0       	breq	.+12     	; 0x87a <String_zerlegen_csg+0x13a>
			ONE_Acc_Speed[j] = c;
     86e:	fa 01       	movw	r30, r20
     870:	ea 0f       	add	r30, r26
     872:	fb 1f       	adc	r31, r27
     874:	20 83       	st	Z, r18
			i++;
     876:	01 96       	adiw	r24, 0x01	; 1
			j++;
     878:	11 96       	adiw	r26, 0x01	; 1
		}
	} while (j < 4 && c != '\0' && c != 'S');
     87a:	a4 30       	cpi	r26, 0x04	; 4
     87c:	b1 05       	cpc	r27, r1
     87e:	24 f4       	brge	.+8      	; 0x888 <String_zerlegen_csg+0x148>
     880:	22 23       	and	r18, r18
     882:	11 f0       	breq	.+4      	; 0x888 <String_zerlegen_csg+0x148>
     884:	23 35       	cpi	r18, 0x53	; 83
     886:	69 f7       	brne	.-38     	; 0x862 <String_zerlegen_csg+0x122>
	ONE_Acc_Speed[j] = '\0';
     888:	8e 01       	movw	r16, r28
     88a:	0f 5f       	subi	r16, 0xFF	; 255
     88c:	1f 4f       	sbci	r17, 0xFF	; 255
     88e:	a0 0f       	add	r26, r16
     890:	b1 1f       	adc	r27, r17
     892:	1c 92       	st	X, r1

	lcd_puts("1_ACC_SPEED:");
     894:	87 ec       	ldi	r24, 0xC7	; 199
     896:	91 e0       	ldi	r25, 0x01	; 1
     898:	0e 94 65 01 	call	0x2ca	; 0x2ca <lcd_puts>
	lcd_puts(ONE_Acc_Speed);
     89c:	c8 01       	movw	r24, r16
     89e:	0e 94 65 01 	call	0x2ca	; 0x2ca <lcd_puts>
	lcd_puts("\n");
     8a2:	88 eb       	ldi	r24, 0xB8	; 184
     8a4:	91 e0       	ldi	r25, 0x01	; 1
     8a6:	0e 94 65 01 	call	0x2ca	; 0x2ca <lcd_puts>
	//////////////////////////
	//
	//  Blub um eins hochzählen
	//
	//////////////////////////
	blub++;
     8aa:	80 91 54 05 	lds	r24, 0x0554
     8ae:	90 91 55 05 	lds	r25, 0x0555
     8b2:	01 96       	adiw	r24, 0x01	; 1
     8b4:	90 93 55 05 	sts	0x0555, r25
     8b8:	80 93 54 05 	sts	0x0554, r24
	//uart_put_string("0\n", D_Stepper);
	uart_put_string(B_OK, D_RapidForm);
     8bc:	84 ed       	ldi	r24, 0xD4	; 212
     8be:	91 e0       	ldi	r25, 0x01	; 1
     8c0:	60 e0       	ldi	r22, 0x00	; 0
     8c2:	70 e0       	ldi	r23, 0x00	; 0
     8c4:	0e 94 d3 02 	call	0x5a6	; 0x5a6 <uart_put_string>
}
     8c8:	61 96       	adiw	r28, 0x11	; 17
     8ca:	0f b6       	in	r0, 0x3f	; 63
     8cc:	f8 94       	cli
     8ce:	de bf       	out	0x3e, r29	; 62
     8d0:	0f be       	out	0x3f, r0	; 63
     8d2:	cd bf       	out	0x3d, r28	; 61
     8d4:	cf 91       	pop	r28
     8d6:	df 91       	pop	r29
     8d8:	1f 91       	pop	r17
     8da:	0f 91       	pop	r16
     8dc:	ff 90       	pop	r15
     8de:	ef 90       	pop	r14
     8e0:	df 90       	pop	r13
     8e2:	cf 90       	pop	r12
     8e4:	08 95       	ret

000008e6 <Position_Zeta>:
		lcd_puts("U_B: ");
		lcd_puts(str_rx);
		lcd_puts("!END       \n");
	}
}
void 	Position_Zeta		(char * str_rx, char * Position) {
     8e6:	cf 93       	push	r28
     8e8:	df 93       	push	r29
     8ea:	eb 01       	movw	r28, r22
     8ec:	a0 e0       	ldi	r26, 0x00	; 0
     8ee:	b0 e0       	ldi	r27, 0x00	; 0
    char c;
    int i = 0;
    do{
        c = str_rx[i + 2];
     8f0:	fc 01       	movw	r30, r24
     8f2:	ea 0f       	add	r30, r26
     8f4:	fb 1f       	adc	r31, r27
     8f6:	22 81       	ldd	r18, Z+2	; 0x02
        if(c != ','){
     8f8:	2c 32       	cpi	r18, 0x2C	; 44
     8fa:	29 f0       	breq	.+10     	; 0x906 <__stack+0x7>
            Position[i] = c;
     8fc:	fe 01       	movw	r30, r28
     8fe:	ea 0f       	add	r30, r26
     900:	fb 1f       	adc	r31, r27
     902:	20 83       	st	Z, r18
            i++;
     904:	11 96       	adiw	r26, 0x01	; 1
        }
    }
     while(i < 20 && c != '\0' && c != ',');
     906:	a4 31       	cpi	r26, 0x14	; 20
     908:	b1 05       	cpc	r27, r1
     90a:	24 f4       	brge	.+8      	; 0x914 <__stack+0x15>
     90c:	22 23       	and	r18, r18
     90e:	11 f0       	breq	.+4      	; 0x914 <__stack+0x15>
     910:	2c 32       	cpi	r18, 0x2C	; 44
     912:	71 f7       	brne	.-36     	; 0x8f0 <Position_Zeta+0xa>
    Position[i] = '\0';
     914:	ac 0f       	add	r26, r28
     916:	bd 1f       	adc	r27, r29
     918:	1c 92       	st	X, r1
    int32_t z;
    z = atol(Position);
     91a:	ce 01       	movw	r24, r28
     91c:	0e 94 a7 0c 	call	0x194e	; 0x194e <atol>
     920:	9b 01       	movw	r18, r22
     922:	ac 01       	movw	r20, r24
    z = z * 9;
    ltoa(z, Position, 10);
     924:	e3 e0       	ldi	r30, 0x03	; 3
     926:	66 0f       	add	r22, r22
     928:	77 1f       	adc	r23, r23
     92a:	88 1f       	adc	r24, r24
     92c:	99 1f       	adc	r25, r25
     92e:	ea 95       	dec	r30
     930:	d1 f7       	brne	.-12     	; 0x926 <__stack+0x27>
     932:	62 0f       	add	r22, r18
     934:	73 1f       	adc	r23, r19
     936:	84 1f       	adc	r24, r20
     938:	95 1f       	adc	r25, r21
     93a:	ae 01       	movw	r20, r28
     93c:	2a e0       	ldi	r18, 0x0A	; 10
     93e:	30 e0       	ldi	r19, 0x00	; 0
     940:	0e 94 21 0d 	call	0x1a42	; 0x1a42 <ltoa>
    //lcd_puts("Position: ");
    //lcd_puts(Position);
    //lcd_puts("\n");
}
     944:	df 91       	pop	r29
     946:	cf 91       	pop	r28
     948:	08 95       	ret

0000094a <String_zerlegen_Isel>:
			return n;
		}
	}
	return 99;
}
void 	String_zerlegen_Isel(char * str_rx, char * Position) {
     94a:	0f 93       	push	r16
     94c:	1f 93       	push	r17
     94e:	cf 93       	push	r28
     950:	df 93       	push	r29
     952:	8c 01       	movw	r16, r24
     954:	eb 01       	movw	r28, r22
	//0M5200, +600
	//Achse M Position, +Geschwindigkeit
	char * Achse="0";
	Achse[0] = str_rx[1];
	Achse[1] = '\0';
	if(atoi(Achse)==0){
     956:	8e ed       	ldi	r24, 0xDE	; 222
     958:	91 e0       	ldi	r25, 0x01	; 1
     95a:	0e 94 89 0c 	call	0x1912	; 0x1912 <atoi>
     95e:	89 2b       	or	r24, r25
     960:	61 f4       	brne	.+24     	; 0x97a <String_zerlegen_Isel+0x30>
		lcd_puts("Achse: ");
     962:	80 ee       	ldi	r24, 0xE0	; 224
     964:	91 e0       	ldi	r25, 0x01	; 1
     966:	0e 94 65 01 	call	0x2ca	; 0x2ca <lcd_puts>
		lcd_puts(Achse);
     96a:	8e ed       	ldi	r24, 0xDE	; 222
     96c:	91 e0       	ldi	r25, 0x01	; 1
     96e:	0e 94 65 01 	call	0x2ca	; 0x2ca <lcd_puts>
		lcd_puts(" (Rotation)\n");
     972:	88 ee       	ldi	r24, 0xE8	; 232
     974:	91 e0       	ldi	r25, 0x01	; 1
     976:	0e 94 65 01 	call	0x2ca	; 0x2ca <lcd_puts>
	}
	if(atoi(Achse)==1){
     97a:	8e ed       	ldi	r24, 0xDE	; 222
     97c:	91 e0       	ldi	r25, 0x01	; 1
     97e:	0e 94 89 0c 	call	0x1912	; 0x1912 <atoi>
     982:	01 97       	sbiw	r24, 0x01	; 1
     984:	61 f4       	brne	.+24     	; 0x99e <String_zerlegen_Isel+0x54>
		lcd_puts("Achse: ");
     986:	80 ee       	ldi	r24, 0xE0	; 224
     988:	91 e0       	ldi	r25, 0x01	; 1
     98a:	0e 94 65 01 	call	0x2ca	; 0x2ca <lcd_puts>
		lcd_puts(Achse);
     98e:	8e ed       	ldi	r24, 0xDE	; 222
     990:	91 e0       	ldi	r25, 0x01	; 1
     992:	0e 94 65 01 	call	0x2ca	; 0x2ca <lcd_puts>
		lcd_puts(" (Hoehe)   \n");
     996:	85 ef       	ldi	r24, 0xF5	; 245
     998:	91 e0       	ldi	r25, 0x01	; 1
     99a:	0e 94 65 01 	call	0x2ca	; 0x2ca <lcd_puts>
	}
	lcd_puts("Test: ");
     99e:	82 e0       	ldi	r24, 0x02	; 2
     9a0:	92 e0       	ldi	r25, 0x02	; 2
     9a2:	0e 94 65 01 	call	0x2ca	; 0x2ca <lcd_puts>
	lcd_puts(Position);
     9a6:	ce 01       	movw	r24, r28
     9a8:	0e 94 65 01 	call	0x2ca	; 0x2ca <lcd_puts>
     9ac:	a0 e0       	ldi	r26, 0x00	; 0
     9ae:	b0 e0       	ldi	r27, 0x00	; 0
	char c;
	int i = 0;
	do {
		c = str_rx[i + 3];
     9b0:	f8 01       	movw	r30, r16
     9b2:	ea 0f       	add	r30, r26
     9b4:	fb 1f       	adc	r31, r27
     9b6:	83 81       	ldd	r24, Z+3	; 0x03
		if (c != ',') {
     9b8:	8c 32       	cpi	r24, 0x2C	; 44
     9ba:	29 f0       	breq	.+10     	; 0x9c6 <String_zerlegen_Isel+0x7c>
			Position[i] = c;
     9bc:	fe 01       	movw	r30, r28
     9be:	ea 0f       	add	r30, r26
     9c0:	fb 1f       	adc	r31, r27
     9c2:	80 83       	st	Z, r24
			i++;
     9c4:	11 96       	adiw	r26, 0x01	; 1
		}
	} while (i < 20 && c != '\0' && c != ',');
     9c6:	a4 31       	cpi	r26, 0x14	; 20
     9c8:	b1 05       	cpc	r27, r1
     9ca:	24 f4       	brge	.+8      	; 0x9d4 <String_zerlegen_Isel+0x8a>
     9cc:	88 23       	and	r24, r24
     9ce:	11 f0       	breq	.+4      	; 0x9d4 <String_zerlegen_Isel+0x8a>
     9d0:	8c 32       	cpi	r24, 0x2C	; 44
     9d2:	71 f7       	brne	.-36     	; 0x9b0 <String_zerlegen_Isel+0x66>
	Position[i] = '\0';
     9d4:	ac 0f       	add	r26, r28
     9d6:	bd 1f       	adc	r27, r29
     9d8:	1c 92       	st	X, r1
	int32_t z;
	z = atoi(Position);
     9da:	ce 01       	movw	r24, r28
     9dc:	0e 94 89 0c 	call	0x1912	; 0x1912 <atoi>
	z = z * 71111/1024;
     9e0:	aa 27       	eor	r26, r26
     9e2:	97 fd       	sbrc	r25, 7
     9e4:	a0 95       	com	r26
     9e6:	ba 2f       	mov	r27, r26
     9e8:	bc 01       	movw	r22, r24
     9ea:	cd 01       	movw	r24, r26
     9ec:	27 ec       	ldi	r18, 0xC7	; 199
     9ee:	35 e1       	ldi	r19, 0x15	; 21
     9f0:	41 e0       	ldi	r20, 0x01	; 1
     9f2:	50 e0       	ldi	r21, 0x00	; 0
     9f4:	0e 94 a5 0b 	call	0x174a	; 0x174a <__mulsi3>
	ltoa(z,Position,10);
     9f8:	20 e0       	ldi	r18, 0x00	; 0
     9fa:	34 e0       	ldi	r19, 0x04	; 4
     9fc:	40 e0       	ldi	r20, 0x00	; 0
     9fe:	50 e0       	ldi	r21, 0x00	; 0
     a00:	0e 94 d7 0b 	call	0x17ae	; 0x17ae <__divmodsi4>
     a04:	ca 01       	movw	r24, r20
     a06:	b9 01       	movw	r22, r18
     a08:	ae 01       	movw	r20, r28
     a0a:	2a e0       	ldi	r18, 0x0A	; 10
     a0c:	30 e0       	ldi	r19, 0x00	; 0
     a0e:	0e 94 21 0d 	call	0x1a42	; 0x1a42 <ltoa>
	//lcd_puts("Position: ");
	//lcd_puts(Position);
	//lcd_puts("\n");
}
     a12:	df 91       	pop	r29
     a14:	cf 91       	pop	r28
     a16:	1f 91       	pop	r17
     a18:	0f 91       	pop	r16
     a1a:	08 95       	ret

00000a1c <FindStringInArray>:
			.Befehl = progmem_Befehl,
	}
};


int 	FindStringInArray	(const char* pInput, const char* pOptions[], int cmp_length) {
     a1c:	cf 92       	push	r12
     a1e:	df 92       	push	r13
     a20:	ef 92       	push	r14
     a22:	ff 92       	push	r15
     a24:	0f 93       	push	r16
     a26:	1f 93       	push	r17
     a28:	cf 93       	push	r28
     a2a:	df 93       	push	r29
     a2c:	6c 01       	movw	r12, r24
     a2e:	7a 01       	movw	r14, r20
     a30:	8b 01       	movw	r16, r22
     a32:	cf ef       	ldi	r28, 0xFF	; 255
     a34:	df ef       	ldi	r29, 0xFF	; 255
     a36:	08 c0       	rjmp	.+16     	; 0xa48 <FindStringInArray+0x2c>
	int n = -1;
	while (pOptions[++n]) {
		//lcd_puts(pOptions[n]);
		//lcd_puts("\n");
		if (!strncmp(pInput, pOptions[n], cmp_length)){
     a38:	c6 01       	movw	r24, r12
     a3a:	a7 01       	movw	r20, r14
     a3c:	0e 94 f2 0c 	call	0x19e4	; 0x19e4 <strncmp>
     a40:	0e 5f       	subi	r16, 0xFE	; 254
     a42:	1f 4f       	sbci	r17, 0xFF	; 255
     a44:	00 97       	sbiw	r24, 0x00	; 0
     a46:	49 f0       	breq	.+18     	; 0xa5a <FindStringInArray+0x3e>
};


int 	FindStringInArray	(const char* pInput, const char* pOptions[], int cmp_length) {
	int n = -1;
	while (pOptions[++n]) {
     a48:	21 96       	adiw	r28, 0x01	; 1
     a4a:	f8 01       	movw	r30, r16
     a4c:	60 81       	ld	r22, Z
     a4e:	71 81       	ldd	r23, Z+1	; 0x01
     a50:	61 15       	cp	r22, r1
     a52:	71 05       	cpc	r23, r1
     a54:	89 f7       	brne	.-30     	; 0xa38 <FindStringInArray+0x1c>
     a56:	c3 e6       	ldi	r28, 0x63	; 99
     a58:	d0 e0       	ldi	r29, 0x00	; 0
		if (!strncmp(pInput, pOptions[n], cmp_length)){
			return n;
		}
	}
	return 99;
}
     a5a:	ce 01       	movw	r24, r28
     a5c:	df 91       	pop	r29
     a5e:	cf 91       	pop	r28
     a60:	1f 91       	pop	r17
     a62:	0f 91       	pop	r16
     a64:	ff 90       	pop	r15
     a66:	ef 90       	pop	r14
     a68:	df 90       	pop	r13
     a6a:	cf 90       	pop	r12
     a6c:	08 95       	ret

00000a6e <switch_Motor>:
		uart_put_string(str_rx,D_Stepper);
		uart_put_string("\n",D_Stepper);
	}
}

int 	switch_Motor		(char * str_rx) {
     a6e:	df 93       	push	r29
     a70:	cf 93       	push	r28
     a72:	cd b7       	in	r28, 0x3d	; 61
     a74:	de b7       	in	r29, 0x3e	; 62
     a76:	2a 97       	sbiw	r28, 0x0a	; 10
     a78:	0f b6       	in	r0, 0x3f	; 63
     a7a:	f8 94       	cli
     a7c:	de bf       	out	0x3e, r29	; 62
     a7e:	0f be       	out	0x3f, r0	; 63
     a80:	cd bf       	out	0x3d, r28	; 61
	const char* pOptions[] = {
			"@01", 		// 0 - Isel
			"Q:",    	// 1 - CSG
			"ECHO0", 	// 2 - Zeta
			"!Terminal",	// 3 - Terminal ansteuerung!
			0 };
     a82:	de 01       	movw	r26, r28
     a84:	11 96       	adiw	r26, 0x01	; 1
     a86:	e8 e8       	ldi	r30, 0x88	; 136
     a88:	f4 e0       	ldi	r31, 0x04	; 4
     a8a:	2a e0       	ldi	r18, 0x0A	; 10
     a8c:	01 90       	ld	r0, Z+
     a8e:	0d 92       	st	X+, r0
     a90:	21 50       	subi	r18, 0x01	; 1
     a92:	e1 f7       	brne	.-8      	; 0xa8c <switch_Motor+0x1e>
	switch (FindStringInArray(str_rx, pOptions, 3)) {
     a94:	be 01       	movw	r22, r28
     a96:	6f 5f       	subi	r22, 0xFF	; 255
     a98:	7f 4f       	sbci	r23, 0xFF	; 255
     a9a:	43 e0       	ldi	r20, 0x03	; 3
     a9c:	50 e0       	ldi	r21, 0x00	; 0
     a9e:	0e 94 0e 05 	call	0xa1c	; 0xa1c <FindStringInArray>
     aa2:	81 30       	cpi	r24, 0x01	; 1
     aa4:	91 05       	cpc	r25, r1
     aa6:	61 f0       	breq	.+24     	; 0xac0 <switch_Motor+0x52>
     aa8:	82 30       	cpi	r24, 0x02	; 2
     aaa:	91 05       	cpc	r25, r1
     aac:	1c f4       	brge	.+6      	; 0xab4 <switch_Motor+0x46>
     aae:	89 2b       	or	r24, r25
     ab0:	51 f0       	breq	.+20     	; 0xac6 <switch_Motor+0x58>
     ab2:	12 c0       	rjmp	.+36     	; 0xad8 <switch_Motor+0x6a>
     ab4:	82 30       	cpi	r24, 0x02	; 2
     ab6:	91 05       	cpc	r25, r1
     ab8:	49 f0       	breq	.+18     	; 0xacc <switch_Motor+0x5e>
     aba:	03 97       	sbiw	r24, 0x03	; 3
     abc:	69 f4       	brne	.+26     	; 0xad8 <switch_Motor+0x6a>
     abe:	09 c0       	rjmp	.+18     	; 0xad2 <switch_Motor+0x64>
     ac0:	21 e0       	ldi	r18, 0x01	; 1
     ac2:	30 e0       	ldi	r19, 0x00	; 0
     ac4:	0b c0       	rjmp	.+22     	; 0xadc <switch_Motor+0x6e>
     ac6:	20 e0       	ldi	r18, 0x00	; 0
     ac8:	30 e0       	ldi	r19, 0x00	; 0
     aca:	08 c0       	rjmp	.+16     	; 0xadc <switch_Motor+0x6e>
     acc:	22 e0       	ldi	r18, 0x02	; 2
     ace:	30 e0       	ldi	r19, 0x00	; 0
     ad0:	05 c0       	rjmp	.+10     	; 0xadc <switch_Motor+0x6e>
		break;
	case 1: 		// 1 - CSG
		return M_CSG;
		break;
	case 2:			// 2 - Zeta
		return M_ZETA;
     ad2:	23 e0       	ldi	r18, 0x03	; 3
     ad4:	30 e0       	ldi	r19, 0x00	; 0
     ad6:	02 c0       	rjmp	.+4      	; 0xadc <switch_Motor+0x6e>
		break;
	case 3:			// 3 - Terminal ansteuerung
		return M_TERMINAL;
     ad8:	2e ef       	ldi	r18, 0xFE	; 254
     ada:	3f ef       	ldi	r19, 0xFF	; 255
		break;
	default:
		return M_UNK;
	}
}
     adc:	c9 01       	movw	r24, r18
     ade:	2a 96       	adiw	r28, 0x0a	; 10
     ae0:	0f b6       	in	r0, 0x3f	; 63
     ae2:	f8 94       	cli
     ae4:	de bf       	out	0x3e, r29	; 62
     ae6:	0f be       	out	0x3f, r0	; 63
     ae8:	cd bf       	out	0x3d, r28	; 61
     aea:	cf 91       	pop	r28
     aec:	df 91       	pop	r29
     aee:	08 95       	ret

00000af0 <switch_Terminal>:
		lcd_puts("       \n");
		//Initialized = switch_Inputs(str_rx);
	}
}
int init_T = 0;
void 	switch_Terminal			(char * str_rx) {
     af0:	0f 93       	push	r16
     af2:	1f 93       	push	r17
     af4:	df 93       	push	r29
     af6:	cf 93       	push	r28
     af8:	cd b7       	in	r28, 0x3d	; 61
     afa:	de b7       	in	r29, 0x3e	; 62
     afc:	2a 97       	sbiw	r28, 0x0a	; 10
     afe:	0f b6       	in	r0, 0x3f	; 63
     b00:	f8 94       	cli
     b02:	de bf       	out	0x3e, r29	; 62
     b04:	0f be       	out	0x3f, r0	; 63
     b06:	cd bf       	out	0x3d, r28	; 61
     b08:	8c 01       	movw	r16, r24
	const char* pOptions[] = {
			"!CLS", // 0 - LC-Display löschen
			"Test",	// 1 - Test
			"!Manual",// 2 - Ignorieren
			"!YYYY",// 3 - Wait till motor stops
			0 };
     b0a:	de 01       	movw	r26, r28
     b0c:	11 96       	adiw	r26, 0x01	; 1
     b0e:	ea ea       	ldi	r30, 0xAA	; 170
     b10:	f4 e0       	ldi	r31, 0x04	; 4
     b12:	8a e0       	ldi	r24, 0x0A	; 10
     b14:	01 90       	ld	r0, Z+
     b16:	0d 92       	st	X+, r0
     b18:	81 50       	subi	r24, 0x01	; 1
     b1a:	e1 f7       	brne	.-8      	; 0xb14 <switch_Terminal+0x24>

	if (init_T == 0){
     b1c:	80 91 58 05 	lds	r24, 0x0558
     b20:	90 91 59 05 	lds	r25, 0x0559
     b24:	89 2b       	or	r24, r25
     b26:	c1 f4       	brne	.+48     	; 0xb58 <switch_Terminal+0x68>
		init_T = 1;
     b28:	81 e0       	ldi	r24, 0x01	; 1
     b2a:	90 e0       	ldi	r25, 0x00	; 0
     b2c:	90 93 59 05 	sts	0x0559, r25
     b30:	80 93 58 05 	sts	0x0558, r24
		uart_put_string("Willkommen im Terminal Modus\r\n",D_RapidForm);
     b34:	89 e0       	ldi	r24, 0x09	; 9
     b36:	92 e0       	ldi	r25, 0x02	; 2
     b38:	60 e0       	ldi	r22, 0x00	; 0
     b3a:	70 e0       	ldi	r23, 0x00	; 0
     b3c:	0e 94 d3 02 	call	0x5a6	; 0x5a6 <uart_put_string>
		uart_put_string("mögliche Befehle sind: \r\n",D_RapidForm);
     b40:	88 e2       	ldi	r24, 0x28	; 40
     b42:	92 e0       	ldi	r25, 0x02	; 2
     b44:	60 e0       	ldi	r22, 0x00	; 0
     b46:	70 e0       	ldi	r23, 0x00	; 0
     b48:	0e 94 d3 02 	call	0x5a6	; 0x5a6 <uart_put_string>
		uart_put_string(" A - Motorstatus\r\n M - Move Steps\r\n", D_RapidForm);
     b4c:	82 e4       	ldi	r24, 0x42	; 66
     b4e:	92 e0       	ldi	r25, 0x02	; 2
     b50:	60 e0       	ldi	r22, 0x00	; 0
     b52:	70 e0       	ldi	r23, 0x00	; 0
     b54:	0e 94 d3 02 	call	0x5a6	; 0x5a6 <uart_put_string>
	}
	switch (FindStringInArray(str_rx, pOptions, 2)) {
     b58:	c8 01       	movw	r24, r16
     b5a:	be 01       	movw	r22, r28
     b5c:	6f 5f       	subi	r22, 0xFF	; 255
     b5e:	7f 4f       	sbci	r23, 0xFF	; 255
     b60:	42 e0       	ldi	r20, 0x02	; 2
     b62:	50 e0       	ldi	r21, 0x00	; 0
     b64:	0e 94 0e 05 	call	0xa1c	; 0xa1c <FindStringInArray>
     b68:	81 30       	cpi	r24, 0x01	; 1
     b6a:	91 05       	cpc	r25, r1
     b6c:	61 f0       	breq	.+24     	; 0xb86 <switch_Terminal+0x96>
     b6e:	82 30       	cpi	r24, 0x02	; 2
     b70:	91 05       	cpc	r25, r1
     b72:	1c f4       	brge	.+6      	; 0xb7a <switch_Terminal+0x8a>
     b74:	89 2b       	or	r24, r25
     b76:	21 f0       	breq	.+8      	; 0xb80 <switch_Terminal+0x90>
     b78:	0f c0       	rjmp	.+30     	; 0xb98 <switch_Terminal+0xa8>
     b7a:	04 97       	sbiw	r24, 0x04	; 4
     b7c:	6c f4       	brge	.+26     	; 0xb98 <switch_Terminal+0xa8>
     b7e:	1e c0       	rjmp	.+60     	; 0xbbc <switch_Terminal+0xcc>
	case 0: // Display löschen
		lcd_clrscr();
     b80:	0e 94 29 01 	call	0x252	; 0x252 <lcd_clrscr>
     b84:	1b c0       	rjmp	.+54     	; 0xbbc <switch_Terminal+0xcc>
		break;
	case 1: // Interner Test
		lcd_puts("Test bestanden     \n");
     b86:	86 e6       	ldi	r24, 0x66	; 102
     b88:	92 e0       	ldi	r25, 0x02	; 2
     b8a:	0e 94 65 01 	call	0x2ca	; 0x2ca <lcd_puts>
		uart_put_string("Test bestanden", D_RapidForm);
     b8e:	8b e7       	ldi	r24, 0x7B	; 123
     b90:	92 e0       	ldi	r25, 0x02	; 2
     b92:	60 e0       	ldi	r22, 0x00	; 0
     b94:	70 e0       	ldi	r23, 0x00	; 0
     b96:	10 c0       	rjmp	.+32     	; 0xbb8 <switch_Terminal+0xc8>
	case 3: // Reserve 2

		break;
	default:
		//lcd_puts("Z:");
		lcd_puts(str_rx);
     b98:	c8 01       	movw	r24, r16
     b9a:	0e 94 65 01 	call	0x2ca	; 0x2ca <lcd_puts>
		lcd_puts("       \n");
     b9e:	8a e8       	ldi	r24, 0x8A	; 138
     ba0:	92 e0       	ldi	r25, 0x02	; 2
     ba2:	0e 94 65 01 	call	0x2ca	; 0x2ca <lcd_puts>
		uart_put_string(str_rx,D_Stepper);
     ba6:	c8 01       	movw	r24, r16
     ba8:	61 e0       	ldi	r22, 0x01	; 1
     baa:	70 e0       	ldi	r23, 0x00	; 0
     bac:	0e 94 d3 02 	call	0x5a6	; 0x5a6 <uart_put_string>
		uart_put_string("\n",D_Stepper);
     bb0:	88 eb       	ldi	r24, 0xB8	; 184
     bb2:	91 e0       	ldi	r25, 0x01	; 1
     bb4:	61 e0       	ldi	r22, 0x01	; 1
     bb6:	70 e0       	ldi	r23, 0x00	; 0
     bb8:	0e 94 d3 02 	call	0x5a6	; 0x5a6 <uart_put_string>
	}
}
     bbc:	2a 96       	adiw	r28, 0x0a	; 10
     bbe:	0f b6       	in	r0, 0x3f	; 63
     bc0:	f8 94       	cli
     bc2:	de bf       	out	0x3e, r29	; 62
     bc4:	0f be       	out	0x3f, r0	; 63
     bc6:	cd bf       	out	0x3d, r28	; 61
     bc8:	cf 91       	pop	r28
     bca:	df 91       	pop	r29
     bcc:	1f 91       	pop	r17
     bce:	0f 91       	pop	r16
     bd0:	08 95       	ret

00000bd2 <switch_csg>:
	default:
		lcd_puts("ISEL:    \n");
		lcd_puts(str_rx);
	}
}
void 	switch_csg			(char * str_rx) {
     bd2:	0f 93       	push	r16
     bd4:	1f 93       	push	r17
     bd6:	df 93       	push	r29
     bd8:	cf 93       	push	r28
     bda:	cd b7       	in	r28, 0x3d	; 61
     bdc:	de b7       	in	r29, 0x3e	; 62
     bde:	a0 97       	sbiw	r28, 0x20	; 32
     be0:	0f b6       	in	r0, 0x3f	; 63
     be2:	f8 94       	cli
     be4:	de bf       	out	0x3e, r29	; 62
     be6:	0f be       	out	0x3f, r0	; 63
     be8:	cd bf       	out	0x3d, r28	; 61
     bea:	8c 01       	movw	r16, r24
			"H:", // 5 - H:
			"G", // 6 - Motor starten
			"M:", // 7 - Move by Pulses
			"!", // 8 - Busy Ready ?
			"H1",
			0 };
     bec:	de 01       	movw	r26, r28
     bee:	1b 96       	adiw	r26, 0x0b	; 11
     bf0:	ed e0       	ldi	r30, 0x0D	; 13
     bf2:	f5 e0       	ldi	r31, 0x05	; 5
     bf4:	86 e1       	ldi	r24, 0x16	; 22
     bf6:	01 90       	ld	r0, Z+
     bf8:	0d 92       	st	X+, r0
     bfa:	81 50       	subi	r24, 0x01	; 1
     bfc:	e1 f7       	brne	.-8      	; 0xbf6 <switch_csg+0x24>
	switch (FindStringInArray(str_rx, pOptions, 2)) {
     bfe:	c8 01       	movw	r24, r16
     c00:	be 01       	movw	r22, r28
     c02:	65 5f       	subi	r22, 0xF5	; 245
     c04:	7f 4f       	sbci	r23, 0xFF	; 255
     c06:	42 e0       	ldi	r20, 0x02	; 2
     c08:	50 e0       	ldi	r21, 0x00	; 0
     c0a:	0e 94 0e 05 	call	0xa1c	; 0xa1c <FindStringInArray>
     c0e:	84 30       	cpi	r24, 0x04	; 4
     c10:	91 05       	cpc	r25, r1
     c12:	c1 f1       	breq	.+112    	; 0xc84 <switch_csg+0xb2>
     c14:	85 30       	cpi	r24, 0x05	; 5
     c16:	91 05       	cpc	r25, r1
     c18:	84 f4       	brge	.+32     	; 0xc3a <switch_csg+0x68>
     c1a:	81 30       	cpi	r24, 0x01	; 1
     c1c:	91 05       	cpc	r25, r1
     c1e:	29 f1       	breq	.+74     	; 0xc6a <switch_csg+0x98>
     c20:	82 30       	cpi	r24, 0x02	; 2
     c22:	91 05       	cpc	r25, r1
     c24:	1c f4       	brge	.+6      	; 0xc2c <switch_csg+0x5a>
     c26:	89 2b       	or	r24, r25
     c28:	e9 f0       	breq	.+58     	; 0xc64 <switch_csg+0x92>
     c2a:	65 c0       	rjmp	.+202    	; 0xcf6 <switch_csg+0x124>
     c2c:	82 30       	cpi	r24, 0x02	; 2
     c2e:	91 05       	cpc	r25, r1
     c30:	f9 f0       	breq	.+62     	; 0xc70 <switch_csg+0x9e>
     c32:	03 97       	sbiw	r24, 0x03	; 3
     c34:	09 f0       	breq	.+2      	; 0xc38 <switch_csg+0x66>
     c36:	5f c0       	rjmp	.+190    	; 0xcf6 <switch_csg+0x124>
     c38:	1e c0       	rjmp	.+60     	; 0xc76 <switch_csg+0xa4>
     c3a:	87 30       	cpi	r24, 0x07	; 7
     c3c:	91 05       	cpc	r25, r1
     c3e:	81 f1       	breq	.+96     	; 0xca0 <switch_csg+0xce>
     c40:	88 30       	cpi	r24, 0x08	; 8
     c42:	91 05       	cpc	r25, r1
     c44:	3c f4       	brge	.+14     	; 0xc54 <switch_csg+0x82>
     c46:	85 30       	cpi	r24, 0x05	; 5
     c48:	91 05       	cpc	r25, r1
     c4a:	01 f1       	breq	.+64     	; 0xc8c <switch_csg+0xba>
     c4c:	06 97       	sbiw	r24, 0x06	; 6
     c4e:	09 f0       	breq	.+2      	; 0xc52 <switch_csg+0x80>
     c50:	52 c0       	rjmp	.+164    	; 0xcf6 <switch_csg+0x124>
     c52:	23 c0       	rjmp	.+70     	; 0xc9a <switch_csg+0xc8>
     c54:	88 30       	cpi	r24, 0x08	; 8
     c56:	91 05       	cpc	r25, r1
     c58:	09 f4       	brne	.+2      	; 0xc5c <switch_csg+0x8a>
     c5a:	3f c0       	rjmp	.+126    	; 0xcda <switch_csg+0x108>
     c5c:	09 97       	sbiw	r24, 0x09	; 9
     c5e:	09 f0       	breq	.+2      	; 0xc62 <switch_csg+0x90>
     c60:	4a c0       	rjmp	.+148    	; 0xcf6 <switch_csg+0x124>
     c62:	46 c0       	rjmp	.+140    	; 0xcf0 <switch_csg+0x11e>
	case 0: // Motorkarte Erfolgreich angesprochen
		lcd_puts("!");
     c64:	83 e9       	ldi	r24, 0x93	; 147
     c66:	92 e0       	ldi	r25, 0x02	; 2
     c68:	4f c0       	rjmp	.+158    	; 0xd08 <switch_csg+0x136>
		break;
	case 1: // Display löschen
		lcd_clrscr();
     c6a:	0e 94 29 01 	call	0x252	; 0x252 <lcd_clrscr>
     c6e:	4e c0       	rjmp	.+156    	; 0xd0c <switch_csg+0x13a>
		break;
	case 2: // Interner Test
		lcd_puts("!T");
     c70:	85 e9       	ldi	r24, 0x95	; 149
     c72:	92 e0       	ldi	r25, 0x02	; 2
     c74:	49 c0       	rjmp	.+146    	; 0xd08 <switch_csg+0x136>
		//uart_puts("Test bestanden\n\r");
		break;
	case 3: // Status abfrage von Software
		lcd_puts("Statusabfrage     \n");
     c76:	88 e9       	ldi	r24, 0x98	; 152
     c78:	92 e0       	ldi	r25, 0x02	; 2
     c7a:	0e 94 65 01 	call	0x2ca	; 0x2ca <lcd_puts>
		csg_Status_melden();
     c7e:	0e 94 4d 03 	call	0x69a	; 0x69a <csg_Status_melden>
     c82:	44 c0       	rjmp	.+136    	; 0xd0c <switch_csg+0x13a>
		break;
	case 4:
		String_zerlegen_csg(str_rx);
     c84:	c8 01       	movw	r24, r16
     c86:	0e 94 a0 03 	call	0x740	; 0x740 <String_zerlegen_csg>
     c8a:	40 c0       	rjmp	.+128    	; 0xd0c <switch_csg+0x13a>

		break;
	case 5:
		lcd_puts("H:                 \n");
     c8c:	8c ea       	ldi	r24, 0xAC	; 172
     c8e:	92 e0       	ldi	r25, 0x02	; 2
     c90:	0e 94 65 01 	call	0x2ca	; 0x2ca <lcd_puts>
		uart_put_string(B_OK, D_RapidForm);
     c94:	84 ed       	ldi	r24, 0xD4	; 212
     c96:	91 e0       	ldi	r25, 0x01	; 1
     c98:	26 c0       	rjmp	.+76     	; 0xce6 <switch_csg+0x114>
		break;
	case 6:
		lcd_puts("Motor starten\n");
     c9a:	81 ec       	ldi	r24, 0xC1	; 193
     c9c:	92 e0       	ldi	r25, 0x02	; 2
     c9e:	34 c0       	rjmp	.+104    	; 0xd08 <switch_csg+0x136>
		//uart_put_string(B_OK, D_RapidForm);
		break;
	case 7:
		move++;
     ca0:	80 91 56 05 	lds	r24, 0x0556
     ca4:	90 91 57 05 	lds	r25, 0x0557
     ca8:	01 96       	adiw	r24, 0x01	; 1
     caa:	90 93 57 05 	sts	0x0557, r25
     cae:	80 93 56 05 	sts	0x0556, r24
		char it[10];
		itoa(move, it, 10);
     cb2:	8e 01       	movw	r16, r28
     cb4:	0f 5f       	subi	r16, 0xFF	; 255
     cb6:	1f 4f       	sbci	r17, 0xFF	; 255
     cb8:	b8 01       	movw	r22, r16
     cba:	4a e0       	ldi	r20, 0x0A	; 10
     cbc:	50 e0       	ldi	r21, 0x00	; 0
     cbe:	0e 94 00 0d 	call	0x1a00	; 0x1a00 <itoa>
		lcd_puts(it);
     cc2:	c8 01       	movw	r24, r16
     cc4:	0e 94 65 01 	call	0x2ca	; 0x2ca <lcd_puts>
		lcd_puts("_Move!\n");
     cc8:	80 ed       	ldi	r24, 0xD0	; 208
     cca:	92 e0       	ldi	r25, 0x02	; 2
     ccc:	0e 94 65 01 	call	0x2ca	; 0x2ca <lcd_puts>
		uart_put_string("M 160000\r\n",D_Stepper);
     cd0:	88 ed       	ldi	r24, 0xD8	; 216
     cd2:	92 e0       	ldi	r25, 0x02	; 2
     cd4:	61 e0       	ldi	r22, 0x01	; 1
     cd6:	70 e0       	ldi	r23, 0x00	; 0
     cd8:	08 c0       	rjmp	.+16     	; 0xcea <switch_csg+0x118>

		break;
	case 8:
		lcd_puts("R/B?");
     cda:	83 ee       	ldi	r24, 0xE3	; 227
     cdc:	92 e0       	ldi	r25, 0x02	; 2
     cde:	0e 94 65 01 	call	0x2ca	; 0x2ca <lcd_puts>
		uart_put_string("R\r\n", D_RapidForm);
     ce2:	88 ee       	ldi	r24, 0xE8	; 232
     ce4:	92 e0       	ldi	r25, 0x02	; 2
     ce6:	60 e0       	ldi	r22, 0x00	; 0
     ce8:	70 e0       	ldi	r23, 0x00	; 0
     cea:	0e 94 d3 02 	call	0x5a6	; 0x5a6 <uart_put_string>
     cee:	0e c0       	rjmp	.+28     	; 0xd0c <switch_csg+0x13a>
		break;
	case 9:
		lcd_puts("H1 empfangen       \n");
     cf0:	8c ee       	ldi	r24, 0xEC	; 236
     cf2:	92 e0       	ldi	r25, 0x02	; 2
     cf4:	09 c0       	rjmp	.+18     	; 0xd08 <switch_csg+0x136>
		break;
	default:
		lcd_puts("U_B: ");
     cf6:	81 e0       	ldi	r24, 0x01	; 1
     cf8:	93 e0       	ldi	r25, 0x03	; 3
     cfa:	0e 94 65 01 	call	0x2ca	; 0x2ca <lcd_puts>
		lcd_puts(str_rx);
     cfe:	c8 01       	movw	r24, r16
     d00:	0e 94 65 01 	call	0x2ca	; 0x2ca <lcd_puts>
		lcd_puts("!END       \n");
     d04:	87 e0       	ldi	r24, 0x07	; 7
     d06:	93 e0       	ldi	r25, 0x03	; 3
     d08:	0e 94 65 01 	call	0x2ca	; 0x2ca <lcd_puts>
	}
}
     d0c:	a0 96       	adiw	r28, 0x20	; 32
     d0e:	0f b6       	in	r0, 0x3f	; 63
     d10:	f8 94       	cli
     d12:	de bf       	out	0x3e, r29	; 62
     d14:	0f be       	out	0x3f, r0	; 63
     d16:	cd bf       	out	0x3d, r28	; 61
     d18:	cf 91       	pop	r28
     d1a:	df 91       	pop	r29
     d1c:	1f 91       	pop	r17
     d1e:	0f 91       	pop	r16
     d20:	08 95       	ret

00000d22 <switch_Stepper>:
	}
}
// Vearbeitungs Logik

int Initialized = M_NOTI;
void 	switch_Stepper		(char * str_rx) {
     d22:	0f 93       	push	r16
     d24:	1f 93       	push	r17
     d26:	df 93       	push	r29
     d28:	cf 93       	push	r28
     d2a:	cd b7       	in	r28, 0x3d	; 61
     d2c:	de b7       	in	r29, 0x3e	; 62
     d2e:	2a 97       	sbiw	r28, 0x0a	; 10
     d30:	0f b6       	in	r0, 0x3f	; 63
     d32:	f8 94       	cli
     d34:	de bf       	out	0x3e, r29	; 62
     d36:	0f be       	out	0x3f, r0	; 63
     d38:	cd bf       	out	0x3d, r28	; 61
     d3a:	8c 01       	movw	r16, r24
	const char* pOptions[] = {
			"#", 	// 0 - Stepper Karte Befehl erkannt
			"E", 	// 1 - Error
			"!CLS", // 2 - Clear Screen
			"Test", // 3 - Test
			0 };
     d3c:	de 01       	movw	r26, r28
     d3e:	11 96       	adiw	r26, 0x01	; 1
     d40:	e5 e4       	ldi	r30, 0x45	; 69
     d42:	f5 e0       	ldi	r31, 0x05	; 5
     d44:	8a e0       	ldi	r24, 0x0A	; 10
     d46:	01 90       	ld	r0, Z+
     d48:	0d 92       	st	X+, r0
     d4a:	81 50       	subi	r24, 0x01	; 1
     d4c:	e1 f7       	brne	.-8      	; 0xd46 <switch_Stepper+0x24>
	switch (FindStringInArray(str_rx, pOptions, 1)) {
     d4e:	c8 01       	movw	r24, r16
     d50:	be 01       	movw	r22, r28
     d52:	6f 5f       	subi	r22, 0xFF	; 255
     d54:	7f 4f       	sbci	r23, 0xFF	; 255
     d56:	41 e0       	ldi	r20, 0x01	; 1
     d58:	50 e0       	ldi	r21, 0x00	; 0
     d5a:	0e 94 0e 05 	call	0xa1c	; 0xa1c <FindStringInArray>
     d5e:	81 30       	cpi	r24, 0x01	; 1
     d60:	91 05       	cpc	r25, r1
     d62:	79 f0       	breq	.+30     	; 0xd82 <switch_Stepper+0x60>
     d64:	82 30       	cpi	r24, 0x02	; 2
     d66:	91 05       	cpc	r25, r1
     d68:	1c f4       	brge	.+6      	; 0xd70 <switch_Stepper+0x4e>
     d6a:	89 2b       	or	r24, r25
     d6c:	39 f0       	breq	.+14     	; 0xd7c <switch_Stepper+0x5a>
     d6e:	1a c0       	rjmp	.+52     	; 0xda4 <switch_Stepper+0x82>
     d70:	82 30       	cpi	r24, 0x02	; 2
     d72:	91 05       	cpc	r25, r1
     d74:	89 f0       	breq	.+34     	; 0xd98 <switch_Stepper+0x76>
     d76:	03 97       	sbiw	r24, 0x03	; 3
     d78:	a9 f4       	brne	.+42     	; 0xda4 <switch_Stepper+0x82>
     d7a:	11 c0       	rjmp	.+34     	; 0xd9e <switch_Stepper+0x7c>
	case 0:
		lcd_puts("Erfolgreich\n");
     d7c:	84 e1       	ldi	r24, 0x14	; 20
     d7e:	93 e0       	ldi	r25, 0x03	; 3
     d80:	1a c0       	rjmp	.+52     	; 0xdb6 <switch_Stepper+0x94>
		//uart_put_string("0\n\r", D_RapidForm);
		break;
	case 1:
		lcd_puts("Error\n");
     d82:	81 e2       	ldi	r24, 0x21	; 33
     d84:	93 e0       	ldi	r25, 0x03	; 3
     d86:	0e 94 65 01 	call	0x2ca	; 0x2ca <lcd_puts>
		uart_put_string("1\r\n", D_RapidForm);
     d8a:	88 e2       	ldi	r24, 0x28	; 40
     d8c:	93 e0       	ldi	r25, 0x03	; 3
     d8e:	60 e0       	ldi	r22, 0x00	; 0
     d90:	70 e0       	ldi	r23, 0x00	; 0
     d92:	0e 94 d3 02 	call	0x5a6	; 0x5a6 <uart_put_string>
     d96:	11 c0       	rjmp	.+34     	; 0xdba <switch_Stepper+0x98>
		break;
	case 2:
		lcd_clrscr();
     d98:	0e 94 29 01 	call	0x252	; 0x252 <lcd_clrscr>
     d9c:	0e c0       	rjmp	.+28     	; 0xdba <switch_Stepper+0x98>
		break;
	case 3:
		lcd_puts("Test bestanden\n");
     d9e:	8c e2       	ldi	r24, 0x2C	; 44
     da0:	93 e0       	ldi	r25, 0x03	; 3
     da2:	09 c0       	rjmp	.+18     	; 0xdb6 <switch_Stepper+0x94>
		//uart_put_string("Test bestanden\n\r", D_RapidForm);
		break;
	default:
		lcd_puts("Antwort: ");
     da4:	8c e3       	ldi	r24, 0x3C	; 60
     da6:	93 e0       	ldi	r25, 0x03	; 3
     da8:	0e 94 65 01 	call	0x2ca	; 0x2ca <lcd_puts>
		lcd_puts(str_rx);
     dac:	c8 01       	movw	r24, r16
     dae:	0e 94 65 01 	call	0x2ca	; 0x2ca <lcd_puts>
		lcd_puts("!\n");
     db2:	86 e4       	ldi	r24, 0x46	; 70
     db4:	93 e0       	ldi	r25, 0x03	; 3
     db6:	0e 94 65 01 	call	0x2ca	; 0x2ca <lcd_puts>
		//uart_put_string(str_rx, D_RapidForm);
	}
}
     dba:	2a 96       	adiw	r28, 0x0a	; 10
     dbc:	0f b6       	in	r0, 0x3f	; 63
     dbe:	f8 94       	cli
     dc0:	de bf       	out	0x3e, r29	; 62
     dc2:	0f be       	out	0x3f, r0	; 63
     dc4:	cd bf       	out	0x3d, r28	; 61
     dc6:	cf 91       	pop	r28
     dc8:	df 91       	pop	r29
     dca:	1f 91       	pop	r17
     dcc:	0f 91       	pop	r16
     dce:	08 95       	ret

00000dd0 <switch_Isel>:
void 	switch_Isel			(char * str_rx) {
     dd0:	cf 92       	push	r12
     dd2:	df 92       	push	r13
     dd4:	ef 92       	push	r14
     dd6:	ff 92       	push	r15
     dd8:	0f 93       	push	r16
     dda:	1f 93       	push	r17
     ddc:	df 93       	push	r29
     dde:	cf 93       	push	r28
     de0:	cd b7       	in	r28, 0x3d	; 61
     de2:	de b7       	in	r29, 0x3e	; 62
     de4:	c9 57       	subi	r28, 0x79	; 121
     de6:	d0 40       	sbci	r29, 0x00	; 0
     de8:	0f b6       	in	r0, 0x3f	; 63
     dea:	f8 94       	cli
     dec:	de bf       	out	0x3e, r29	; 62
     dee:	0f be       	out	0x3f, r0	; 63
     df0:	cd bf       	out	0x3d, r28	; 61
     df2:	6c 01       	movw	r12, r24
			"!CLS",    	// 1 - LC-Display löschen
			"Test", 	// 2 - Test
			"@01",  	// 3 - Achse auswählen
			"@0R", 		// 4 - Status abfrage
			"@0M", 		// 5 - Gehe zu Position MX , +600
			0 };
     df4:	de 01       	movw	r26, r28
     df6:	13 96       	adiw	r26, 0x03	; 3
     df8:	e3 e3       	ldi	r30, 0x33	; 51
     dfa:	f5 e0       	ldi	r31, 0x05	; 5
     dfc:	8e e0       	ldi	r24, 0x0E	; 14
     dfe:	01 90       	ld	r0, Z+
     e00:	0d 92       	st	X+, r0
     e02:	81 50       	subi	r24, 0x01	; 1
     e04:	e1 f7       	brne	.-8      	; 0xdfe <switch_Isel+0x2e>

	int Ret_Val = FindStringInArray(str_rx, pOptions, 3);
     e06:	c6 01       	movw	r24, r12
     e08:	be 01       	movw	r22, r28
     e0a:	6d 5f       	subi	r22, 0xFD	; 253
     e0c:	7f 4f       	sbci	r23, 0xFF	; 255
     e0e:	43 e0       	ldi	r20, 0x03	; 3
     e10:	50 e0       	ldi	r21, 0x00	; 0
     e12:	0e 94 0e 05 	call	0xa1c	; 0xa1c <FindStringInArray>
	switch (Ret_Val) {
     e16:	82 30       	cpi	r24, 0x02	; 2
     e18:	91 05       	cpc	r25, r1
     e1a:	c9 f0       	breq	.+50     	; 0xe4e <switch_Isel+0x7e>
     e1c:	83 30       	cpi	r24, 0x03	; 3
     e1e:	91 05       	cpc	r25, r1
     e20:	34 f4       	brge	.+12     	; 0xe2e <switch_Isel+0x5e>
     e22:	00 97       	sbiw	r24, 0x00	; 0
     e24:	71 f0       	breq	.+28     	; 0xe42 <switch_Isel+0x72>
     e26:	01 97       	sbiw	r24, 0x01	; 1
     e28:	09 f0       	breq	.+2      	; 0xe2c <switch_Isel+0x5c>
     e2a:	00 c1       	rjmp	.+512    	; 0x102c <inner_1673+0x66>
     e2c:	0d c0       	rjmp	.+26     	; 0xe48 <switch_Isel+0x78>
     e2e:	84 30       	cpi	r24, 0x04	; 4
     e30:	91 05       	cpc	r25, r1
     e32:	81 f1       	breq	.+96     	; 0xe94 <inner_1538+0x30>
     e34:	84 30       	cpi	r24, 0x04	; 4
     e36:	91 05       	cpc	r25, r1
     e38:	8c f0       	brlt	.+34     	; 0xe5c <switch_Isel+0x8c>
     e3a:	05 97       	sbiw	r24, 0x05	; 5
     e3c:	09 f0       	breq	.+2      	; 0xe40 <switch_Isel+0x70>
     e3e:	f6 c0       	rjmp	.+492    	; 0x102c <inner_1673+0x66>
     e40:	52 c0       	rjmp	.+164    	; 0xee6 <inner_1565+0x36>
	case 0: 		// 0 - Reserve
		lcd_puts("Reserve\r\n");
     e42:	89 e4       	ldi	r24, 0x49	; 73
     e44:	93 e0       	ldi	r25, 0x03	; 3
     e46:	f7 c0       	rjmp	.+494    	; 0x1036 <inner_1673+0x70>
		break;
	case 1: 		// 1 - LC-Display löschen
		lcd_clrscr();
     e48:	0e 94 29 01 	call	0x252	; 0x252 <lcd_clrscr>
     e4c:	f6 c0       	rjmp	.+492    	; 0x103a <inner_1673+0x74>
		break;
	case 2:			// 2 - Test
		lcd_puts("Test bestanden\n");
     e4e:	8c e2       	ldi	r24, 0x2C	; 44
     e50:	93 e0       	ldi	r25, 0x03	; 3
     e52:	0e 94 65 01 	call	0x2ca	; 0x2ca <lcd_puts>
		uart_put_string("Test bestanden\r\n", D_RapidForm);
     e56:	83 e5       	ldi	r24, 0x53	; 83
     e58:	93 e0       	ldi	r25, 0x03	; 3
     e5a:	e3 c0       	rjmp	.+454    	; 0x1022 <inner_1673+0x5c>
 */


static inline void ms_spin(unsigned short ms) {
	if (ms) {
		__asm__ __volatile__ (
     e5c:	8a e0       	ldi	r24, 0x0A	; 10
     e5e:	90 e0       	ldi	r25, 0x00	; 0

00000e60 <outer_1538>:
     e60:	a0 ed       	ldi	r26, 0xD0	; 208
     e62:	b7 e0       	ldi	r27, 0x07	; 7

00000e64 <inner_1538>:
     e64:	11 97       	sbiw	r26, 0x01	; 1
     e66:	f1 f7       	brne	.-4      	; 0xe64 <inner_1538>
     e68:	01 97       	sbiw	r24, 0x01	; 1
     e6a:	d1 f7       	brne	.-12     	; 0xe60 <outer_1538>

	    char buf[32];
	    PGM_P p;
	    int i;

	    memcpy_P(&p, &Protokoll.Motor[M_ISEL].Befehl[0].Name[0], sizeof(PGM_P));
     e6c:	60 91 64 04 	lds	r22, 0x0464
     e70:	70 91 65 04 	lds	r23, 0x0465
     e74:	ce 01       	movw	r24, r28
     e76:	01 96       	adiw	r24, 0x01	; 1
     e78:	42 e0       	ldi	r20, 0x02	; 2
     e7a:	50 e0       	ldi	r21, 0x00	; 0
     e7c:	0e 94 ce 0c 	call	0x199c	; 0x199c <memcpy_P>
	    strcpy_P(buf, p);
     e80:	8e 01       	movw	r16, r28
     e82:	0f 5e       	subi	r16, 0xEF	; 239
     e84:	1f 4f       	sbci	r17, 0xFF	; 255
     e86:	69 81       	ldd	r22, Y+1	; 0x01
     e88:	7a 81       	ldd	r23, Y+2	; 0x02
     e8a:	c8 01       	movw	r24, r16
     e8c:	0e 94 d7 0c 	call	0x19ae	; 0x19ae <strcpy_P>
			str_in_p += 1;
			s_ptr++; // Increase string pointer
		} while( pgm_read_byte( s_ptr ) != 0x00 );  // End of string
		*/

		lcd_puts( buf );
     e90:	c8 01       	movw	r24, r16
     e92:	c3 c0       	rjmp	.+390    	; 0x101a <inner_1673+0x54>
		//String_zerlegen_Isel(str_rx, Position);
		uart_put_string("0\r\n", D_RapidForm);
		//uart_put_string(Protokoll.Motor[M_ISEL].Befehl[0].Output, D_RapidForm);
		break;
	case 4:			// 4 - Status abfrage
		lcd_puts("Statusabfrage:     \n");
     e94:	84 e6       	ldi	r24, 0x64	; 100
     e96:	93 e0       	ldi	r25, 0x03	; 3
     e98:	0e 94 65 01 	call	0x2ca	; 0x2ca <lcd_puts>
		uart_put_string("A\n", D_Stepper);
     e9c:	89 e7       	ldi	r24, 0x79	; 121
     e9e:	93 e0       	ldi	r25, 0x03	; 3
     ea0:	61 e0       	ldi	r22, 0x01	; 1
     ea2:	70 e0       	ldi	r23, 0x00	; 0
     ea4:	0e 94 d3 02 	call	0x5a6	; 0x5a6 <uart_put_string>
     ea8:	82 e3       	ldi	r24, 0x32	; 50
     eaa:	90 e0       	ldi	r25, 0x00	; 0

00000eac <outer_1565>:
     eac:	a0 ed       	ldi	r26, 0xD0	; 208
     eae:	b7 e0       	ldi	r27, 0x07	; 7

00000eb0 <inner_1565>:
     eb0:	11 97       	sbiw	r26, 0x01	; 1
     eb2:	f1 f7       	brne	.-4      	; 0xeb0 <inner_1565>
     eb4:	01 97       	sbiw	r24, 0x01	; 1
     eb6:	d1 f7       	brne	.-12     	; 0xeac <outer_1565>
		ms_spin(50);
		if ((UCSR1A & (1 << RXC1)))
     eb8:	80 91 c8 00 	lds	r24, 0x00C8
     ebc:	87 ff       	sbrs	r24, 7
     ebe:	04 c0       	rjmp	.+8      	; 0xec8 <inner_1565+0x18>
			uart_rx(D_Stepper);
     ec0:	81 e0       	ldi	r24, 0x01	; 1
     ec2:	90 e0       	ldi	r25, 0x00	; 0
     ec4:	0e 94 2d 08 	call	0x105a	; 0x105a <uart_rx>
		if (!strcmp(str_rx,"0#"))
     ec8:	c6 01       	movw	r24, r12
     eca:	6c e7       	ldi	r22, 0x7C	; 124
     ecc:	73 e0       	ldi	r23, 0x03	; 3
     ece:	0e 94 e9 0c 	call	0x19d2	; 0x19d2 <strcmp>
     ed2:	00 97       	sbiw	r24, 0x00	; 0
     ed4:	09 f4       	brne	.+2      	; 0xed8 <inner_1565+0x28>
     ed6:	a3 c0       	rjmp	.+326    	; 0x101e <inner_1673+0x58>
			uart_put_string("0\r\n", D_RapidForm);
		else {
			lcd_puts("Fehlgeschlagen     \n");
     ed8:	8f e7       	ldi	r24, 0x7F	; 127
     eda:	93 e0       	ldi	r25, 0x03	; 3
     edc:	0e 94 65 01 	call	0x2ca	; 0x2ca <lcd_puts>
			uart_put_string("-1\r\n", D_RapidForm);
     ee0:	84 e9       	ldi	r24, 0x94	; 148
     ee2:	93 e0       	ldi	r25, 0x03	; 3
     ee4:	9e c0       	rjmp	.+316    	; 0x1022 <inner_1673+0x5c>
     ee6:	8a e0       	ldi	r24, 0x0A	; 10
     ee8:	90 e0       	ldi	r25, 0x00	; 0

00000eea <outer_1594>:
     eea:	a0 ed       	ldi	r26, 0xD0	; 208
     eec:	b7 e0       	ldi	r27, 0x07	; 7

00000eee <inner_1594>:
     eee:	11 97       	sbiw	r26, 0x01	; 1
     ef0:	f1 f7       	brne	.-4      	; 0xeee <inner_1594>
     ef2:	01 97       	sbiw	r24, 0x01	; 1
     ef4:	d1 f7       	brne	.-12     	; 0xeea <outer_1594>
		}
		break;
	case 5:			// 5 - Gehe zu Position MX , +600
		ms_spin(10);
		char Position[33];
		memset(Position, '\0', 33);
     ef6:	f1 e3       	ldi	r31, 0x31	; 49
     ef8:	ef 2e       	mov	r14, r31
     efa:	f1 2c       	mov	r15, r1
     efc:	ec 0e       	add	r14, r28
     efe:	fd 1e       	adc	r15, r29
     f00:	81 e2       	ldi	r24, 0x21	; 33
     f02:	f7 01       	movw	r30, r14
     f04:	11 92       	st	Z+, r1
     f06:	8a 95       	dec	r24
     f08:	e9 f7       	brne	.-6      	; 0xf04 <inner_1594+0x16>
		String_zerlegen_Isel(str_rx, Position);
     f0a:	c6 01       	movw	r24, r12
     f0c:	b7 01       	movw	r22, r14
     f0e:	0e 94 a5 04 	call	0x94a	; 0x94a <String_zerlegen_Isel>
		char Move_To[40];
		memset(Move_To,  '\0', 40);
     f12:	8e 01       	movw	r16, r28
     f14:	0e 5a       	subi	r16, 0xAE	; 174
     f16:	1f 4f       	sbci	r17, 0xFF	; 255
     f18:	88 e2       	ldi	r24, 0x28	; 40
     f1a:	f8 01       	movw	r30, r16
     f1c:	11 92       	st	Z+, r1
     f1e:	8a 95       	dec	r24
     f20:	e9 f7       	brne	.-6      	; 0xf1c <inner_1594+0x2e>
		Move_To[0] = 'M';
     f22:	8d e4       	ldi	r24, 0x4D	; 77
     f24:	f8 01       	movw	r30, r16
     f26:	80 83       	st	Z, r24
		Move_To[1] = 'A';
     f28:	81 e4       	ldi	r24, 0x41	; 65
     f2a:	81 83       	std	Z+1, r24	; 0x01
		Move_To[2] = ' ';
     f2c:	80 e2       	ldi	r24, 0x20	; 32
     f2e:	82 83       	std	Z+2, r24	; 0x02
		Move_To[3] = '\0';
     f30:	13 82       	std	Z+3, r1	; 0x03
		strcat(Move_To, Position);
     f32:	c8 01       	movw	r24, r16
     f34:	b7 01       	movw	r22, r14
     f36:	0e 94 de 0c 	call	0x19bc	; 0x19bc <strcat>
		strcat(Move_To, "\n");
     f3a:	c8 01       	movw	r24, r16
     f3c:	68 eb       	ldi	r22, 0xB8	; 184
     f3e:	71 e0       	ldi	r23, 0x01	; 1
     f40:	0e 94 de 0c 	call	0x19bc	; 0x19bc <strcat>
		lcd_puts("Pos:");
     f44:	89 e9       	ldi	r24, 0x99	; 153
     f46:	93 e0       	ldi	r25, 0x03	; 3
     f48:	0e 94 65 01 	call	0x2ca	; 0x2ca <lcd_puts>
		lcd_puts(Move_To);
     f4c:	c8 01       	movw	r24, r16
     f4e:	0e 94 65 01 	call	0x2ca	; 0x2ca <lcd_puts>

		uart_put_string(Move_To, D_Stepper);
     f52:	c8 01       	movw	r24, r16
     f54:	61 e0       	ldi	r22, 0x01	; 1
     f56:	70 e0       	ldi	r23, 0x00	; 0
     f58:	0e 94 d3 02 	call	0x5a6	; 0x5a6 <uart_put_string>
     f5c:	02 e3       	ldi	r16, 0x32	; 50
     f5e:	10 e0       	ldi	r17, 0x00	; 0
     f60:	f8 01       	movw	r30, r16

00000f62 <outer_1635>:
     f62:	a0 ed       	ldi	r26, 0xD0	; 208
     f64:	b7 e0       	ldi	r27, 0x07	; 7

00000f66 <inner_1635>:
     f66:	11 97       	sbiw	r26, 0x01	; 1
     f68:	f1 f7       	brne	.-4      	; 0xf66 <inner_1635>
     f6a:	01 97       	sbiw	r24, 0x01	; 1
     f6c:	d1 f7       	brne	.-12     	; 0xf62 <outer_1635>
		ms_spin(50);
		if ((UCSR1A & (1 << RXC1)))
     f6e:	80 91 c8 00 	lds	r24, 0x00C8
     f72:	87 ff       	sbrs	r24, 7
     f74:	62 c0       	rjmp	.+196    	; 0x103a <inner_1673+0x74>
			uart_rx(D_Stepper);
     f76:	81 e0       	ldi	r24, 0x01	; 1
     f78:	90 e0       	ldi	r25, 0x00	; 0
     f7a:	0e 94 2d 08 	call	0x105a	; 0x105a <uart_rx>
		else {
			//lcd_puts("Befehl n. bestaetig\n");
			break;
		}

		uart_put_string("A\n", D_Stepper);
     f7e:	89 e7       	ldi	r24, 0x79	; 121
     f80:	93 e0       	ldi	r25, 0x03	; 3
     f82:	61 e0       	ldi	r22, 0x01	; 1
     f84:	70 e0       	ldi	r23, 0x00	; 0
     f86:	0e 94 d3 02 	call	0x5a6	; 0x5a6 <uart_put_string>
     f8a:	f8 01       	movw	r30, r16

00000f8c <outer_1649>:
     f8c:	a0 ed       	ldi	r26, 0xD0	; 208
     f8e:	b7 e0       	ldi	r27, 0x07	; 7

00000f90 <inner_1649>:
     f90:	11 97       	sbiw	r26, 0x01	; 1
     f92:	f1 f7       	brne	.-4      	; 0xf90 <inner_1649>
     f94:	01 97       	sbiw	r24, 0x01	; 1
     f96:	d1 f7       	brne	.-12     	; 0xf8c <outer_1649>
		ms_spin(50);
		if ((UCSR1A & (1 << RXC1)))
     f98:	80 91 c8 00 	lds	r24, 0x00C8
     f9c:	87 ff       	sbrs	r24, 7
     f9e:	05 c0       	rjmp	.+10     	; 0xfaa <inner_1649+0x1a>
			uart_rx(D_Stepper);
     fa0:	81 e0       	ldi	r24, 0x01	; 1
     fa2:	90 e0       	ldi	r25, 0x00	; 0
     fa4:	0e 94 2d 08 	call	0x105a	; 0x105a <uart_rx>
     fa8:	25 c0       	rjmp	.+74     	; 0xff4 <inner_1673+0x2e>
		else {
			lcd_puts("Keine Bewegung!\n");
     faa:	8e e9       	ldi	r24, 0x9E	; 158
     fac:	93 e0       	ldi	r25, 0x03	; 3
     fae:	0e 94 65 01 	call	0x2ca	; 0x2ca <lcd_puts>
     fb2:	20 c0       	rjmp	.+64     	; 0xff4 <inner_1673+0x2e>
		}

		while (!strcmp(str_rx,"1#")){
			uart_put_string("A\n", D_Stepper);
     fb4:	89 e7       	ldi	r24, 0x79	; 121
     fb6:	93 e0       	ldi	r25, 0x03	; 3
     fb8:	61 e0       	ldi	r22, 0x01	; 1
     fba:	70 e0       	ldi	r23, 0x00	; 0
     fbc:	0e 94 d3 02 	call	0x5a6	; 0x5a6 <uart_put_string>
     fc0:	f8 01       	movw	r30, r16

00000fc2 <outer_1673>:
     fc2:	a0 ed       	ldi	r26, 0xD0	; 208
     fc4:	b7 e0       	ldi	r27, 0x07	; 7

00000fc6 <inner_1673>:
     fc6:	11 97       	sbiw	r26, 0x01	; 1
     fc8:	f1 f7       	brne	.-4      	; 0xfc6 <inner_1673>
     fca:	01 97       	sbiw	r24, 0x01	; 1
     fcc:	d1 f7       	brne	.-12     	; 0xfc2 <outer_1673>
			ms_spin(50);
			if ((UCSR1A & (1 << RXC1))){
     fce:	80 91 c8 00 	lds	r24, 0x00C8
     fd2:	87 ff       	sbrs	r24, 7
     fd4:	09 c0       	rjmp	.+18     	; 0xfe8 <inner_1673+0x22>
				uart_rx(D_Stepper);
     fd6:	81 e0       	ldi	r24, 0x01	; 1
     fd8:	90 e0       	ldi	r25, 0x00	; 0
     fda:	0e 94 2d 08 	call	0x105a	; 0x105a <uart_rx>
				lcd_clrscr();
     fde:	0e 94 29 01 	call	0x252	; 0x252 <lcd_clrscr>
				lcd_puts("running\n");
     fe2:	8f ea       	ldi	r24, 0xAF	; 175
     fe4:	93 e0       	ldi	r25, 0x03	; 3
     fe6:	02 c0       	rjmp	.+4      	; 0xfec <inner_1673+0x26>
			}
			else {
				lcd_puts("Keine Antwort\n");
     fe8:	88 eb       	ldi	r24, 0xB8	; 184
     fea:	93 e0       	ldi	r25, 0x03	; 3
     fec:	0e 94 65 01 	call	0x2ca	; 0x2ca <lcd_puts>
			}
			wdt_reset();
     ff0:	a8 95       	wdr
     ff2:	02 c0       	rjmp	.+4      	; 0xff8 <inner_1673+0x32>
     ff4:	02 e3       	ldi	r16, 0x32	; 50
     ff6:	10 e0       	ldi	r17, 0x00	; 0
			uart_rx(D_Stepper);
		else {
			lcd_puts("Keine Bewegung!\n");
		}

		while (!strcmp(str_rx,"1#")){
     ff8:	c6 01       	movw	r24, r12
     ffa:	67 ec       	ldi	r22, 0xC7	; 199
     ffc:	73 e0       	ldi	r23, 0x03	; 3
     ffe:	0e 94 e9 0c 	call	0x19d2	; 0x19d2 <strcmp>
    1002:	00 97       	sbiw	r24, 0x00	; 0
    1004:	b9 f2       	breq	.-82     	; 0xfb4 <inner_1649+0x24>
			else {
				lcd_puts("Keine Antwort\n");
			}
			wdt_reset();
		}
		lcd_puts("Position: \n");
    1006:	8a ec       	ldi	r24, 0xCA	; 202
    1008:	93 e0       	ldi	r25, 0x03	; 3
    100a:	0e 94 65 01 	call	0x2ca	; 0x2ca <lcd_puts>
		lcd_puts(Position);
    100e:	ce 01       	movw	r24, r28
    1010:	c1 96       	adiw	r24, 0x31	; 49
    1012:	0e 94 65 01 	call	0x2ca	; 0x2ca <lcd_puts>
		lcd_puts(" Erreicht\n");
    1016:	86 ed       	ldi	r24, 0xD6	; 214
    1018:	93 e0       	ldi	r25, 0x03	; 3
    101a:	0e 94 65 01 	call	0x2ca	; 0x2ca <lcd_puts>
		uart_put_string("0\r\n", D_RapidForm);
    101e:	84 ed       	ldi	r24, 0xD4	; 212
    1020:	91 e0       	ldi	r25, 0x01	; 1
    1022:	60 e0       	ldi	r22, 0x00	; 0
    1024:	70 e0       	ldi	r23, 0x00	; 0
    1026:	0e 94 d3 02 	call	0x5a6	; 0x5a6 <uart_put_string>
    102a:	07 c0       	rjmp	.+14     	; 0x103a <inner_1673+0x74>
		break;
	default:
		lcd_puts("ISEL:    \n");
    102c:	81 ee       	ldi	r24, 0xE1	; 225
    102e:	93 e0       	ldi	r25, 0x03	; 3
    1030:	0e 94 65 01 	call	0x2ca	; 0x2ca <lcd_puts>
		lcd_puts(str_rx);
    1034:	c6 01       	movw	r24, r12
    1036:	0e 94 65 01 	call	0x2ca	; 0x2ca <lcd_puts>
	}
}
    103a:	c7 58       	subi	r28, 0x87	; 135
    103c:	df 4f       	sbci	r29, 0xFF	; 255
    103e:	0f b6       	in	r0, 0x3f	; 63
    1040:	f8 94       	cli
    1042:	de bf       	out	0x3e, r29	; 62
    1044:	0f be       	out	0x3f, r0	; 63
    1046:	cd bf       	out	0x3d, r28	; 61
    1048:	cf 91       	pop	r28
    104a:	df 91       	pop	r29
    104c:	1f 91       	pop	r17
    104e:	0f 91       	pop	r16
    1050:	ff 90       	pop	r15
    1052:	ef 90       	pop	r14
    1054:	df 90       	pop	r13
    1056:	cf 90       	pop	r12
    1058:	08 95       	ret

0000105a <uart_rx>:
		break;
	default:
		return M_UNK;
	}
}
void 	uart_rx				(int dir) {
    105a:	0f 93       	push	r16
    105c:	1f 93       	push	r17
    105e:	8c 01       	movw	r16, r24
	uart_get_string(str_rx, dir);
    1060:	8e e5       	ldi	r24, 0x5E	; 94
    1062:	95 e0       	ldi	r25, 0x05	; 5
    1064:	b8 01       	movw	r22, r16
    1066:	0e 94 2a 03 	call	0x654	; 0x654 <uart_get_string>
	if (dir == D_Stepper)
    106a:	01 30       	cpi	r16, 0x01	; 1
    106c:	11 05       	cpc	r17, r1
    106e:	29 f4       	brne	.+10     	; 0x107a <uart_rx+0x20>
		switch_Stepper(str_rx);
    1070:	8e e5       	ldi	r24, 0x5E	; 94
    1072:	95 e0       	ldi	r25, 0x05	; 5
    1074:	0e 94 91 06 	call	0xd22	; 0xd22 <switch_Stepper>
    1078:	48 c0       	rjmp	.+144    	; 0x110a <uart_rx+0xb0>
	else{
		if(Initialized == M_UNK){
    107a:	80 91 6f 04 	lds	r24, 0x046F
    107e:	90 91 70 04 	lds	r25, 0x0470
    1082:	8e 5f       	subi	r24, 0xFE	; 254
    1084:	9f 4f       	sbci	r25, 0xFF	; 255
    1086:	51 f4       	brne	.+20     	; 0x109c <uart_rx+0x42>
			lcd_puts("Unbekannter Motor!\n");
    1088:	8c ee       	ldi	r24, 0xEC	; 236
    108a:	93 e0       	ldi	r25, 0x03	; 3
    108c:	0e 94 65 01 	call	0x2ca	; 0x2ca <lcd_puts>
			//lcd_puts(str_rx);
			Initialized = M_NOTI;
    1090:	8f ef       	ldi	r24, 0xFF	; 255
    1092:	9f ef       	ldi	r25, 0xFF	; 255
    1094:	90 93 70 04 	sts	0x0470, r25
    1098:	80 93 6f 04 	sts	0x046F, r24
		}
		if(Initialized == M_NOTI){
    109c:	80 91 6f 04 	lds	r24, 0x046F
    10a0:	90 91 70 04 	lds	r25, 0x0470
    10a4:	8f 5f       	subi	r24, 0xFF	; 255
    10a6:	9f 4f       	sbci	r25, 0xFF	; 255
    10a8:	41 f4       	brne	.+16     	; 0x10ba <uart_rx+0x60>
			Initialized = switch_Motor(str_rx);
    10aa:	8e e5       	ldi	r24, 0x5E	; 94
    10ac:	95 e0       	ldi	r25, 0x05	; 5
    10ae:	0e 94 37 05 	call	0xa6e	; 0xa6e <switch_Motor>
    10b2:	90 93 70 04 	sts	0x0470, r25
    10b6:	80 93 6f 04 	sts	0x046F, r24
		}
		if(Initialized == M_ISEL)
    10ba:	80 91 6f 04 	lds	r24, 0x046F
    10be:	90 91 70 04 	lds	r25, 0x0470
    10c2:	89 2b       	or	r24, r25
    10c4:	21 f4       	brne	.+8      	; 0x10ce <uart_rx+0x74>
			switch_Isel(str_rx);
    10c6:	8e e5       	ldi	r24, 0x5E	; 94
    10c8:	95 e0       	ldi	r25, 0x05	; 5
    10ca:	0e 94 e8 06 	call	0xdd0	; 0xdd0 <switch_Isel>
		if(Initialized == M_CSG)
    10ce:	80 91 6f 04 	lds	r24, 0x046F
    10d2:	90 91 70 04 	lds	r25, 0x0470
    10d6:	01 97       	sbiw	r24, 0x01	; 1
    10d8:	21 f4       	brne	.+8      	; 0x10e2 <uart_rx+0x88>
			switch_csg(str_rx);
    10da:	8e e5       	ldi	r24, 0x5E	; 94
    10dc:	95 e0       	ldi	r25, 0x05	; 5
    10de:	0e 94 e9 05 	call	0xbd2	; 0xbd2 <switch_csg>
		if(Initialized == M_ZETA)
    10e2:	80 91 6f 04 	lds	r24, 0x046F
    10e6:	90 91 70 04 	lds	r25, 0x0470
    10ea:	02 97       	sbiw	r24, 0x02	; 2
    10ec:	21 f4       	brne	.+8      	; 0x10f6 <uart_rx+0x9c>
			switch_Zeta(str_rx);
    10ee:	8e e5       	ldi	r24, 0x5E	; 94
    10f0:	95 e0       	ldi	r25, 0x05	; 5
    10f2:	0e 94 88 08 	call	0x1110	; 0x1110 <switch_Zeta>
		if(Initialized == M_TERMINAL)
    10f6:	80 91 6f 04 	lds	r24, 0x046F
    10fa:	90 91 70 04 	lds	r25, 0x0470
    10fe:	03 97       	sbiw	r24, 0x03	; 3
    1100:	21 f4       	brne	.+8      	; 0x110a <uart_rx+0xb0>
			switch_Terminal(str_rx);
    1102:	8e e5       	ldi	r24, 0x5E	; 94
    1104:	95 e0       	ldi	r25, 0x05	; 5
    1106:	0e 94 78 05 	call	0xaf0	; 0xaf0 <switch_Terminal>
	}
}
    110a:	1f 91       	pop	r17
    110c:	0f 91       	pop	r16
    110e:	08 95       	ret

00001110 <switch_Zeta>:
    ltoa(z, Position, 10);
    //lcd_puts("Position: ");
    //lcd_puts(Position);
    //lcd_puts("\n");
}
void 	switch_Zeta			(char * str_rx) {
    1110:	ef 92       	push	r14
    1112:	ff 92       	push	r15
    1114:	0f 93       	push	r16
    1116:	1f 93       	push	r17
    1118:	df 93       	push	r29
    111a:	cf 93       	push	r28
    111c:	cd b7       	in	r28, 0x3d	; 61
    111e:	de b7       	in	r29, 0x3e	; 62
    1120:	c3 56       	subi	r28, 0x63	; 99
    1122:	d0 40       	sbci	r29, 0x00	; 0
    1124:	0f b6       	in	r0, 0x3f	; 63
    1126:	f8 94       	cli
    1128:	de bf       	out	0x3e, r29	; 62
    112a:	0f be       	out	0x3f, r0	; 63
    112c:	cd bf       	out	0x3d, r28	; 61
    112e:	7c 01       	movw	r14, r24
			"D1125",// 7 - Position
			"A8", 	// 8 - Accelartion 8
			"V8",	// 9 - Velocity 8
			"ECHO0",// 10 - Echo abschalten
			"PSET0",// 11 - Ursprung setzen
			0 };
    1130:	de 01       	movw	r26, r28
    1132:	11 96       	adiw	r26, 0x01	; 1
    1134:	ee ed       	ldi	r30, 0xDE	; 222
    1136:	f4 e0       	ldi	r31, 0x04	; 4
    1138:	8a e1       	ldi	r24, 0x1A	; 26
    113a:	01 90       	ld	r0, Z+
    113c:	0d 92       	st	X+, r0
    113e:	81 50       	subi	r24, 0x01	; 1
    1140:	e1 f7       	brne	.-8      	; 0x113a <switch_Zeta+0x2a>
	char Position[33];
	char Move_To[40];
	memset(Move_To,  '\0', 40);
    1142:	8e 01       	movw	r16, r28
    1144:	04 5c       	subi	r16, 0xC4	; 196
    1146:	1f 4f       	sbci	r17, 0xFF	; 255
    1148:	88 e2       	ldi	r24, 0x28	; 40
    114a:	d8 01       	movw	r26, r16
    114c:	1d 92       	st	X+, r1
    114e:	8a 95       	dec	r24
    1150:	e9 f7       	brne	.-6      	; 0x114c <switch_Zeta+0x3c>
	Move_To[0] = 'M';
    1152:	8d e4       	ldi	r24, 0x4D	; 77
    1154:	8c af       	std	Y+60, r24	; 0x3c
	Move_To[1] = 'A';
    1156:	81 e4       	ldi	r24, 0x41	; 65
    1158:	8d af       	std	Y+61, r24	; 0x3d
	Move_To[2] = ' ';
    115a:	80 e2       	ldi	r24, 0x20	; 32
    115c:	8e af       	std	Y+62, r24	; 0x3e
	Move_To[3] = '\0';
    115e:	1f ae       	std	Y+63, r1	; 0x3f
	switch (FindStringInArray(str_rx, pOptions, 1)) {
    1160:	c7 01       	movw	r24, r14
    1162:	be 01       	movw	r22, r28
    1164:	6f 5f       	subi	r22, 0xFF	; 255
    1166:	7f 4f       	sbci	r23, 0xFF	; 255
    1168:	41 e0       	ldi	r20, 0x01	; 1
    116a:	50 e0       	ldi	r21, 0x00	; 0
    116c:	0e 94 0e 05 	call	0xa1c	; 0xa1c <FindStringInArray>
    1170:	87 30       	cpi	r24, 0x07	; 7
    1172:	91 05       	cpc	r25, r1
    1174:	6c f4       	brge	.+26     	; 0x1190 <switch_Zeta+0x80>
    1176:	83 30       	cpi	r24, 0x03	; 3
    1178:	91 05       	cpc	r25, r1
    117a:	0c f0       	brlt	.+2      	; 0x117e <switch_Zeta+0x6e>
    117c:	bc c0       	rjmp	.+376    	; 0x12f6 <inner_1990+0x9a>
    117e:	81 30       	cpi	r24, 0x01	; 1
    1180:	91 05       	cpc	r25, r1
    1182:	c1 f0       	breq	.+48     	; 0x11b4 <switch_Zeta+0xa4>
    1184:	82 30       	cpi	r24, 0x02	; 2
    1186:	91 05       	cpc	r25, r1
    1188:	c4 f4       	brge	.+48     	; 0x11ba <switch_Zeta+0xaa>
    118a:	89 2b       	or	r24, r25
    118c:	81 f0       	breq	.+32     	; 0x11ae <switch_Zeta+0x9e>
    118e:	a8 c0       	rjmp	.+336    	; 0x12e0 <inner_1990+0x84>
    1190:	8a 30       	cpi	r24, 0x0A	; 10
    1192:	91 05       	cpc	r25, r1
    1194:	24 f4       	brge	.+8      	; 0x119e <switch_Zeta+0x8e>
    1196:	08 97       	sbiw	r24, 0x08	; 8
    1198:	0c f0       	brlt	.+2      	; 0x119c <switch_Zeta+0x8c>
    119a:	ad c0       	rjmp	.+346    	; 0x12f6 <inner_1990+0x9a>
    119c:	8e c0       	rjmp	.+284    	; 0x12ba <inner_1990+0x5e>
    119e:	8a 30       	cpi	r24, 0x0A	; 10
    11a0:	91 05       	cpc	r25, r1
    11a2:	09 f4       	brne	.+2      	; 0x11a6 <switch_Zeta+0x96>
    11a4:	96 c0       	rjmp	.+300    	; 0x12d2 <inner_1990+0x76>
    11a6:	0b 97       	sbiw	r24, 0x0b	; 11
    11a8:	09 f0       	breq	.+2      	; 0x11ac <switch_Zeta+0x9c>
    11aa:	9a c0       	rjmp	.+308    	; 0x12e0 <inner_1990+0x84>
    11ac:	a4 c0       	rjmp	.+328    	; 0x12f6 <inner_1990+0x9a>
	case 0: // Display löschen
		lcd_clrscr();
    11ae:	0e 94 29 01 	call	0x252	; 0x252 <lcd_clrscr>
    11b2:	a1 c0       	rjmp	.+322    	; 0x12f6 <inner_1990+0x9a>
		break;
	case 1: // Interner Test
		lcd_puts("Test bestanden     \n");
    11b4:	86 e6       	ldi	r24, 0x66	; 102
    11b6:	92 e0       	ldi	r25, 0x02	; 2
    11b8:	9c c0       	rjmp	.+312    	; 0x12f2 <inner_1990+0x96>
    11ba:	84 e6       	ldi	r24, 0x64	; 100
    11bc:	90 e0       	ldi	r25, 0x00	; 0

000011be <outer_1925>:
    11be:	a0 ed       	ldi	r26, 0xD0	; 208
    11c0:	b7 e0       	ldi	r27, 0x07	; 7

000011c2 <inner_1925>:
    11c2:	11 97       	sbiw	r26, 0x01	; 1
    11c4:	f1 f7       	brne	.-4      	; 0x11c2 <inner_1925>
    11c6:	01 97       	sbiw	r24, 0x01	; 1
    11c8:	d1 f7       	brne	.-12     	; 0x11be <outer_1925>
		break;
	case 2: // Go
		ms_spin(100);
		strcat(Move_To, Position);
    11ca:	c8 01       	movw	r24, r16
    11cc:	be 01       	movw	r22, r28
    11ce:	65 5e       	subi	r22, 0xE5	; 229
    11d0:	7f 4f       	sbci	r23, 0xFF	; 255
    11d2:	0e 94 de 0c 	call	0x19bc	; 0x19bc <strcat>
		strcat(Move_To, "\n");
    11d6:	c8 01       	movw	r24, r16
    11d8:	68 eb       	ldi	r22, 0xB8	; 184
    11da:	71 e0       	ldi	r23, 0x01	; 1
    11dc:	0e 94 de 0c 	call	0x19bc	; 0x19bc <strcat>
		//lcd_puts("Pos:");
		//lcd_puts(Move_To);

		uart_put_string(Move_To, D_Stepper);
    11e0:	c8 01       	movw	r24, r16
    11e2:	61 e0       	ldi	r22, 0x01	; 1
    11e4:	70 e0       	ldi	r23, 0x00	; 0
    11e6:	0e 94 d3 02 	call	0x5a6	; 0x5a6 <uart_put_string>
    11ea:	02 e3       	ldi	r16, 0x32	; 50
    11ec:	10 e0       	ldi	r17, 0x00	; 0
    11ee:	f8 01       	movw	r30, r16

000011f0 <outer_1942>:
    11f0:	a0 ed       	ldi	r26, 0xD0	; 208
    11f2:	b7 e0       	ldi	r27, 0x07	; 7

000011f4 <inner_1942>:
    11f4:	11 97       	sbiw	r26, 0x01	; 1
    11f6:	f1 f7       	brne	.-4      	; 0x11f4 <inner_1942>
    11f8:	01 97       	sbiw	r24, 0x01	; 1
    11fa:	d1 f7       	brne	.-12     	; 0x11f0 <outer_1942>
		ms_spin(50);
		if ((UCSR1A & (1 << RXC1)))
    11fc:	80 91 c8 00 	lds	r24, 0x00C8
    1200:	87 ff       	sbrs	r24, 7
    1202:	16 c0       	rjmp	.+44     	; 0x1230 <inner_1956+0x12>
			uart_rx(D_Stepper);
    1204:	81 e0       	ldi	r24, 0x01	; 1
    1206:	90 e0       	ldi	r25, 0x00	; 0
    1208:	0e 94 2d 08 	call	0x105a	; 0x105a <uart_rx>
		else {
			lcd_puts("Befehl n. bestaetig\n");
			break;
		}

		uart_put_string("A\n", D_Stepper);
    120c:	89 e7       	ldi	r24, 0x79	; 121
    120e:	93 e0       	ldi	r25, 0x03	; 3
    1210:	61 e0       	ldi	r22, 0x01	; 1
    1212:	70 e0       	ldi	r23, 0x00	; 0
    1214:	0e 94 d3 02 	call	0x5a6	; 0x5a6 <uart_put_string>
    1218:	f8 01       	movw	r30, r16

0000121a <outer_1956>:
    121a:	a0 ed       	ldi	r26, 0xD0	; 208
    121c:	b7 e0       	ldi	r27, 0x07	; 7

0000121e <inner_1956>:
    121e:	11 97       	sbiw	r26, 0x01	; 1
    1220:	f1 f7       	brne	.-4      	; 0x121e <inner_1956>
    1222:	01 97       	sbiw	r24, 0x01	; 1
    1224:	d1 f7       	brne	.-12     	; 0x121a <outer_1956>
		ms_spin(50);
		if ((UCSR1A & (1 << RXC1)))
    1226:	80 91 c8 00 	lds	r24, 0x00C8
    122a:	88 23       	and	r24, r24
    122c:	4c f4       	brge	.+18     	; 0x1240 <inner_1956+0x22>
    122e:	03 c0       	rjmp	.+6      	; 0x1236 <inner_1956+0x18>
		uart_put_string(Move_To, D_Stepper);
		ms_spin(50);
		if ((UCSR1A & (1 << RXC1)))
			uart_rx(D_Stepper);
		else {
			lcd_puts("Befehl n. bestaetig\n");
    1230:	80 e0       	ldi	r24, 0x00	; 0
    1232:	94 e0       	ldi	r25, 0x04	; 4
    1234:	5e c0       	rjmp	.+188    	; 0x12f2 <inner_1990+0x96>
		}

		uart_put_string("A\n", D_Stepper);
		ms_spin(50);
		if ((UCSR1A & (1 << RXC1)))
			uart_rx(D_Stepper);
    1236:	81 e0       	ldi	r24, 0x01	; 1
    1238:	90 e0       	ldi	r25, 0x00	; 0
    123a:	0e 94 2d 08 	call	0x105a	; 0x105a <uart_rx>
    123e:	25 c0       	rjmp	.+74     	; 0x128a <inner_1990+0x2e>
		else {
			lcd_puts("Keine Bewegung!\n");
    1240:	8e e9       	ldi	r24, 0x9E	; 158
    1242:	93 e0       	ldi	r25, 0x03	; 3
    1244:	0e 94 65 01 	call	0x2ca	; 0x2ca <lcd_puts>
    1248:	20 c0       	rjmp	.+64     	; 0x128a <inner_1990+0x2e>
		}

		while (!strcmp(str_rx,"1#")){
			uart_put_string("A\n", D_Stepper);
    124a:	89 e7       	ldi	r24, 0x79	; 121
    124c:	93 e0       	ldi	r25, 0x03	; 3
    124e:	61 e0       	ldi	r22, 0x01	; 1
    1250:	70 e0       	ldi	r23, 0x00	; 0
    1252:	0e 94 d3 02 	call	0x5a6	; 0x5a6 <uart_put_string>
    1256:	f8 01       	movw	r30, r16

00001258 <outer_1990>:
    1258:	a0 ed       	ldi	r26, 0xD0	; 208
    125a:	b7 e0       	ldi	r27, 0x07	; 7

0000125c <inner_1990>:
    125c:	11 97       	sbiw	r26, 0x01	; 1
    125e:	f1 f7       	brne	.-4      	; 0x125c <inner_1990>
    1260:	01 97       	sbiw	r24, 0x01	; 1
    1262:	d1 f7       	brne	.-12     	; 0x1258 <outer_1990>
			ms_spin(50);
			if ((UCSR1A & (1 << RXC1))){
    1264:	80 91 c8 00 	lds	r24, 0x00C8
    1268:	87 ff       	sbrs	r24, 7
    126a:	09 c0       	rjmp	.+18     	; 0x127e <inner_1990+0x22>
				uart_rx(D_Stepper);
    126c:	81 e0       	ldi	r24, 0x01	; 1
    126e:	90 e0       	ldi	r25, 0x00	; 0
    1270:	0e 94 2d 08 	call	0x105a	; 0x105a <uart_rx>
				lcd_clrscr();
    1274:	0e 94 29 01 	call	0x252	; 0x252 <lcd_clrscr>
				lcd_puts("running\n");
    1278:	8f ea       	ldi	r24, 0xAF	; 175
    127a:	93 e0       	ldi	r25, 0x03	; 3
    127c:	02 c0       	rjmp	.+4      	; 0x1282 <inner_1990+0x26>
			}
			else {
				lcd_puts("Keine Antwort\n");
    127e:	88 eb       	ldi	r24, 0xB8	; 184
    1280:	93 e0       	ldi	r25, 0x03	; 3
    1282:	0e 94 65 01 	call	0x2ca	; 0x2ca <lcd_puts>
			}
			wdt_reset();
    1286:	a8 95       	wdr
    1288:	02 c0       	rjmp	.+4      	; 0x128e <inner_1990+0x32>
    128a:	02 e3       	ldi	r16, 0x32	; 50
    128c:	10 e0       	ldi	r17, 0x00	; 0
			uart_rx(D_Stepper);
		else {
			lcd_puts("Keine Bewegung!\n");
		}

		while (!strcmp(str_rx,"1#")){
    128e:	c7 01       	movw	r24, r14
    1290:	67 ec       	ldi	r22, 0xC7	; 199
    1292:	73 e0       	ldi	r23, 0x03	; 3
    1294:	0e 94 e9 0c 	call	0x19d2	; 0x19d2 <strcmp>
    1298:	00 97       	sbiw	r24, 0x00	; 0
    129a:	b9 f2       	breq	.-82     	; 0x124a <inner_1956+0x2c>
			else {
				lcd_puts("Keine Antwort\n");
			}
			wdt_reset();
		}
		lcd_puts("Position: \n");
    129c:	8a ec       	ldi	r24, 0xCA	; 202
    129e:	93 e0       	ldi	r25, 0x03	; 3
    12a0:	0e 94 65 01 	call	0x2ca	; 0x2ca <lcd_puts>
		lcd_puts(Position);
    12a4:	ce 01       	movw	r24, r28
    12a6:	4b 96       	adiw	r24, 0x1b	; 27
    12a8:	0e 94 65 01 	call	0x2ca	; 0x2ca <lcd_puts>
		lcd_puts(" Erreicht\n");
    12ac:	86 ed       	ldi	r24, 0xD6	; 214
    12ae:	93 e0       	ldi	r25, 0x03	; 3
    12b0:	0e 94 65 01 	call	0x2ca	; 0x2ca <lcd_puts>
		uart_put_string("\r\n>\040\r\n>\040\r\n>\040\r\n>\040", D_RapidForm);
    12b4:	85 e1       	ldi	r24, 0x15	; 21
    12b6:	94 e0       	ldi	r25, 0x04	; 4
    12b8:	0e c0       	rjmp	.+28     	; 0x12d6 <inner_1990+0x7a>
		break;
	case 6:
		//lcd_puts("MA1 empfangen     \n");
		break;
	case 7: // Position Setzen
		memset(Position, '\0', 33);			// Array mit Nullen befüllen
    12ba:	fe 01       	movw	r30, r28
    12bc:	7b 96       	adiw	r30, 0x1b	; 27
    12be:	81 e2       	ldi	r24, 0x21	; 33
    12c0:	df 01       	movw	r26, r30
    12c2:	1d 92       	st	X+, r1
    12c4:	8a 95       	dec	r24
    12c6:	e9 f7       	brne	.-6      	; 0x12c2 <inner_1990+0x66>
		Position_Zeta(str_rx, Position);
    12c8:	c7 01       	movw	r24, r14
    12ca:	bf 01       	movw	r22, r30
    12cc:	0e 94 73 04 	call	0x8e6	; 0x8e6 <Position_Zeta>
    12d0:	12 c0       	rjmp	.+36     	; 0x12f6 <inner_1990+0x9a>
		//lcd_puts("Speed set");
		break;
	case 10:
		//lcd_puts("Echo off           \n");
		//uart_put_string(str_rx, D_RapidForm);
		uart_put_string("ECHO0\r", D_RapidForm);
    12d2:	86 e2       	ldi	r24, 0x26	; 38
    12d4:	94 e0       	ldi	r25, 0x04	; 4
    12d6:	60 e0       	ldi	r22, 0x00	; 0
    12d8:	70 e0       	ldi	r23, 0x00	; 0
    12da:	0e 94 d3 02 	call	0x5a6	; 0x5a6 <uart_put_string>
    12de:	0b c0       	rjmp	.+22     	; 0x12f6 <inner_1990+0x9a>
		break;
	case 11:
		break;
	default:
		lcd_puts("Z:");
    12e0:	8d e2       	ldi	r24, 0x2D	; 45
    12e2:	94 e0       	ldi	r25, 0x04	; 4
    12e4:	0e 94 65 01 	call	0x2ca	; 0x2ca <lcd_puts>
		lcd_puts(str_rx);
    12e8:	c7 01       	movw	r24, r14
    12ea:	0e 94 65 01 	call	0x2ca	; 0x2ca <lcd_puts>
		lcd_puts("       \n");
    12ee:	8a e8       	ldi	r24, 0x8A	; 138
    12f0:	92 e0       	ldi	r25, 0x02	; 2
    12f2:	0e 94 65 01 	call	0x2ca	; 0x2ca <lcd_puts>
		//Initialized = switch_Inputs(str_rx);
	}
}
    12f6:	cd 59       	subi	r28, 0x9D	; 157
    12f8:	df 4f       	sbci	r29, 0xFF	; 255
    12fa:	0f b6       	in	r0, 0x3f	; 63
    12fc:	f8 94       	cli
    12fe:	de bf       	out	0x3e, r29	; 62
    1300:	0f be       	out	0x3f, r0	; 63
    1302:	cd bf       	out	0x3d, r28	; 61
    1304:	cf 91       	pop	r28
    1306:	df 91       	pop	r29
    1308:	1f 91       	pop	r17
    130a:	0f 91       	pop	r16
    130c:	ff 90       	pop	r15
    130e:	ef 90       	pop	r14
    1310:	08 95       	ret

00001312 <init>:
	//WDTCSR = 0x0F; //Watchdog Off
	sei();
}
void init() {
	// Watchdog Initialisieren oder Abschalten
	init_WDT();
    1312:	0e 94 86 02 	call	0x50c	; 0x50c <init_WDT>
	// LED Port definieren
	LED_DDR = 0xFF;
    1316:	8f ef       	ldi	r24, 0xFF	; 255
    1318:	84 b9       	out	0x04, r24	; 4
	LED_PORT = 0xFF;
    131a:	85 b9       	out	0x05, r24	; 5
	// Interrupts definieren
	PCMSK3 |= (1 << PCINT28); // PD4 als Interrupt zulassen
    131c:	e3 e7       	ldi	r30, 0x73	; 115
    131e:	f0 e0       	ldi	r31, 0x00	; 0
    1320:	80 81       	ld	r24, Z
    1322:	80 61       	ori	r24, 0x10	; 16
    1324:	80 83       	st	Z, r24
	PCICR |= (1 << PCIE3); //Pin Change Interrupt Control Register - PCIE3 setzen für PCINT30
    1326:	e8 e6       	ldi	r30, 0x68	; 104
    1328:	f0 e0       	ldi	r31, 0x00	; 0
    132a:	80 81       	ld	r24, Z
    132c:	88 60       	ori	r24, 0x08	; 8
    132e:	80 83       	st	Z, r24
	// Startup kennzeichnen
	led_spielerein();
    1330:	0e 94 3f 02 	call	0x47e	; 0x47e <led_spielerein>
	// LC Display initialisieren
	lcd_init(LCD_DISP_ON_CURSOR);
    1334:	8e e0       	ldi	r24, 0x0E	; 14
    1336:	0e 94 7f 01 	call	0x2fe	; 0x2fe <lcd_init>
	lcd_clrscr();
    133a:	0e 94 29 01 	call	0x252	; 0x252 <lcd_clrscr>
	lcd_home();
    133e:	0e 94 2d 01 	call	0x25a	; 0x25a <lcd_home>
	//lcd_spielereien();
	// Taster entprellen
	debounce_init();
    1342:	0e 94 6b 02 	call	0x4d6	; 0x4d6 <debounce_init>
	// RS-232 Verbindung initialisieren
	uart_init();
    1346:	0e 94 a3 02 	call	0x546	; 0x546 <uart_init>
	//menu_enter(&menu_context, &menu_main);
}
    134a:	08 95       	ret

0000134c <main>:
//
//      Hauptschleife
//
//////////////////////////////
int main(void) {
	init();
    134c:	0e 94 89 09 	call	0x1312	; 0x1312 <init>
	while (1) {
		wdt_reset();
    1350:	a8 95       	wdr
// check if a key has been pressed. Each pressed key is reported
// only once
//
uint8_t get_key_press( uint8_t key_mask )
{
  cli();                                          // read and clear atomic !
    1352:	f8 94       	cli
  key_mask &= key_press;                          // read key(s)
    1354:	90 91 c2 05 	lds	r25, 0x05C2
    1358:	91 70       	andi	r25, 0x01	; 1
  key_press ^= key_mask;                          // clear key(s)
    135a:	80 91 c2 05 	lds	r24, 0x05C2
    135e:	89 27       	eor	r24, r25
    1360:	80 93 c2 05 	sts	0x05C2, r24
  sei();
    1364:	78 94       	sei
		if (get_key_press(1 << KEY0) || get_key_rpt(1 << KEY0))
    1366:	99 23       	and	r25, r25
    1368:	61 f4       	brne	.+24     	; 0x1382 <main+0x36>
// to this function. This simulates the user repeatedly
// pressing and releasing the key.
//
uint8_t get_key_rpt( uint8_t key_mask )
{
  cli();                                          // read and clear atomic !
    136a:	f8 94       	cli
  key_mask &= key_rpt;                            // read key(s)
    136c:	90 91 5d 05 	lds	r25, 0x055D
    1370:	91 70       	andi	r25, 0x01	; 1
  key_rpt ^= key_mask;                            // clear key(s)
    1372:	80 91 5d 05 	lds	r24, 0x055D
    1376:	89 27       	eor	r24, r25
    1378:	80 93 5d 05 	sts	0x055D, r24
  sei();
    137c:	78 94       	sei
    137e:	99 23       	and	r25, r25
    1380:	11 f0       	breq	.+4      	; 0x1386 <main+0x3a>
			led_lauflicht(); // LED Lauflicht
    1382:	0e 94 7b 02 	call	0x4f6	; 0x4f6 <led_lauflicht>
// check if a key has been pressed. Each pressed key is reported
// only once
//
uint8_t get_key_press( uint8_t key_mask )
{
  cli();                                          // read and clear atomic !
    1386:	f8 94       	cli
  key_mask &= key_press;                          // read key(s)
    1388:	90 91 c2 05 	lds	r25, 0x05C2
    138c:	92 70       	andi	r25, 0x02	; 2
  key_press ^= key_mask;                          // clear key(s)
    138e:	80 91 c2 05 	lds	r24, 0x05C2
    1392:	89 27       	eor	r24, r25
    1394:	80 93 c2 05 	sts	0x05C2, r24
  sei();
    1398:	78 94       	sei
		if (get_key_press(1 << KEY1))
    139a:	99 23       	and	r25, r25
    139c:	31 f0       	breq	.+12     	; 0x13aa <main+0x5e>
			uart_put_string("0\n", D_RapidForm);
    139e:	80 e3       	ldi	r24, 0x30	; 48
    13a0:	94 e0       	ldi	r25, 0x04	; 4
    13a2:	60 e0       	ldi	r22, 0x00	; 0
    13a4:	70 e0       	ldi	r23, 0x00	; 0
    13a6:	0e 94 d3 02 	call	0x5a6	; 0x5a6 <uart_put_string>
// check if a key has been pressed. Each pressed key is reported
// only once
//
uint8_t get_key_press( uint8_t key_mask )
{
  cli();                                          // read and clear atomic !
    13aa:	f8 94       	cli
  key_mask &= key_press;                          // read key(s)
    13ac:	90 91 c2 05 	lds	r25, 0x05C2
    13b0:	94 70       	andi	r25, 0x04	; 4
  key_press ^= key_mask;                          // clear key(s)
    13b2:	80 91 c2 05 	lds	r24, 0x05C2
    13b6:	89 27       	eor	r24, r25
    13b8:	80 93 c2 05 	sts	0x05C2, r24
  sei();
    13bc:	78 94       	sei
		if( get_key_press( 1<<KEY2 ) )
    13be:	99 23       	and	r25, r25
    13c0:	11 f0       	breq	.+4      	; 0x13c6 <main+0x7a>
			lcd_clrscr();
    13c2:	0e 94 29 01 	call	0x252	; 0x252 <lcd_clrscr>
		if (get_key_press(1 << KEY6) || get_key_rpt(1 << KEY6)) // 6 - Previous
			menu_prev_entry(&menu_context);
		if (get_key_press(1 << KEY7))
			menu_exit(&menu_context); // 7 - Menü zurück
		*/
		if ((UCSR0A & (1 << RXC0)))
    13c6:	80 91 c0 00 	lds	r24, 0x00C0
    13ca:	87 ff       	sbrs	r24, 7
    13cc:	04 c0       	rjmp	.+8      	; 0x13d6 <main+0x8a>
			uart_rx(D_RapidForm);
    13ce:	80 e0       	ldi	r24, 0x00	; 0
    13d0:	90 e0       	ldi	r25, 0x00	; 0
    13d2:	0e 94 2d 08 	call	0x105a	; 0x105a <uart_rx>
		if ((UCSR1A & (1 << RXC1)))
    13d6:	80 91 c8 00 	lds	r24, 0x00C8
    13da:	87 ff       	sbrs	r24, 7
    13dc:	b9 cf       	rjmp	.-142    	; 0x1350 <main+0x4>
			uart_rx(D_Stepper);
    13de:	81 e0       	ldi	r24, 0x01	; 1
    13e0:	90 e0       	ldi	r25, 0x00	; 0
    13e2:	0e 94 2d 08 	call	0x105a	; 0x105a <uart_rx>
    13e6:	b4 cf       	rjmp	.-152    	; 0x1350 <main+0x4>

000013e8 <lcd_my_type>:
int 	switch_Motor		(char * str_rx);
void 	switch_Stepper		(char * str_rx);
void 	switch_Isel			(char * str_rx);
void 	switch_csg			(char * str_rx);
// LCD und LED Stuff
void 	lcd_my_type			(char *s) {
    13e8:	ef 92       	push	r14
    13ea:	ff 92       	push	r15
    13ec:	0f 93       	push	r16
    13ee:	1f 93       	push	r17
    13f0:	cf 93       	push	r28
    13f2:	df 93       	push	r29
    13f4:	ec 01       	movw	r28, r24
	srand(TCNT0);
    13f6:	86 b5       	in	r24, 0x26	; 38
    13f8:	90 e0       	ldi	r25, 0x00	; 0
    13fa:	0e 94 7e 0c 	call	0x18fc	; 0x18fc <srand>
    13fe:	a0 ed       	ldi	r26, 0xD0	; 208
    1400:	ea 2e       	mov	r14, r26
    1402:	a7 e0       	ldi	r26, 0x07	; 7
    1404:	fa 2e       	mov	r15, r26
    1406:	17 c0       	rjmp	.+46     	; 0x1436 <lcd_my_type+0x4e>
	int min = 10;
	int max = 250;
	int erg = 0;
	while (*s) // so lange *s != '\0' also ungleich dem "String-Endezeichen(Terminator)"
	{
		erg = (rand() % (max - min + 1) + min);
    1408:	0e 94 79 0c 	call	0x18f2	; 0x18f2 <rand>
    140c:	61 ef       	ldi	r22, 0xF1	; 241
    140e:	70 e0       	ldi	r23, 0x00	; 0
    1410:	0e 94 c4 0b 	call	0x1788	; 0x1788 <__divmodhi4>
    1414:	8c 01       	movw	r16, r24
    1416:	06 5f       	subi	r16, 0xF6	; 246
    1418:	1f 4f       	sbci	r17, 0xFF	; 255
		lcd_putc(*s);
    141a:	88 81       	ld	r24, Y
    141c:	0e 94 31 01 	call	0x262	; 0x262 <lcd_putc>
    1420:	80 e0       	ldi	r24, 0x00	; 0
    1422:	90 e0       	ldi	r25, 0x00	; 0
    1424:	04 c0       	rjmp	.+8      	; 0x142e <lcd_my_type+0x46>
    1426:	f7 01       	movw	r30, r14
    1428:	31 97       	sbiw	r30, 0x01	; 1
    142a:	f1 f7       	brne	.-4      	; 0x1428 <lcd_my_type+0x40>
		s++;
		for (int i = 0; i < erg; i++)
    142c:	01 96       	adiw	r24, 0x01	; 1
    142e:	80 17       	cp	r24, r16
    1430:	91 07       	cpc	r25, r17
    1432:	cc f3       	brlt	.-14     	; 0x1426 <lcd_my_type+0x3e>
	int erg = 0;
	while (*s) // so lange *s != '\0' also ungleich dem "String-Endezeichen(Terminator)"
	{
		erg = (rand() % (max - min + 1) + min);
		lcd_putc(*s);
		s++;
    1434:	21 96       	adiw	r28, 0x01	; 1
void 	lcd_my_type			(char *s) {
	srand(TCNT0);
	int min = 10;
	int max = 250;
	int erg = 0;
	while (*s) // so lange *s != '\0' also ungleich dem "String-Endezeichen(Terminator)"
    1436:	88 81       	ld	r24, Y
    1438:	88 23       	and	r24, r24
    143a:	31 f7       	brne	.-52     	; 0x1408 <lcd_my_type+0x20>
		lcd_putc(*s);
		s++;
		for (int i = 0; i < erg; i++)
			_delay_ms(1);
	}
}
    143c:	df 91       	pop	r29
    143e:	cf 91       	pop	r28
    1440:	1f 91       	pop	r17
    1442:	0f 91       	pop	r16
    1444:	ff 90       	pop	r15
    1446:	ef 90       	pop	r14
    1448:	08 95       	ret

0000144a <lcd_spielereien>:
void 	lcd_spielereien		(void) {
    144a:	88 ee       	ldi	r24, 0xE8	; 232
    144c:	93 e0       	ldi	r25, 0x03	; 3
    144e:	28 ec       	ldi	r18, 0xC8	; 200
    1450:	30 e0       	ldi	r19, 0x00	; 0
    1452:	f9 01       	movw	r30, r18
    1454:	31 97       	sbiw	r30, 0x01	; 1
    1456:	f1 f7       	brne	.-4      	; 0x1454 <lcd_spielereien+0xa>
		{
			// wait 1/10 ms
			_delay_loop_2(((F_CPU) / 4e3) / 10);
			__ticks --;
    1458:	01 97       	sbiw	r24, 0x01	; 1
		__ticks = 1;
	else if (__tmp > 65535)
	{
		//	__ticks = requested delay in 1/10 ms
		__ticks = (uint16_t) (__ms * 10.0);
		while(__ticks)
    145a:	d9 f7       	brne	.-10     	; 0x1452 <lcd_spielereien+0x8>
	_delay_ms(100);
	lcd_my_type("Hello Joe!\n");
    145c:	83 e3       	ldi	r24, 0x33	; 51
    145e:	94 e0       	ldi	r25, 0x04	; 4
    1460:	0e 94 f4 09 	call	0x13e8	; 0x13e8 <lcd_my_type>
    1464:	80 ed       	ldi	r24, 0xD0	; 208
    1466:	97 e0       	ldi	r25, 0x07	; 7
    1468:	28 ec       	ldi	r18, 0xC8	; 200
    146a:	30 e0       	ldi	r19, 0x00	; 0
    146c:	f9 01       	movw	r30, r18
    146e:	31 97       	sbiw	r30, 0x01	; 1
    1470:	f1 f7       	brne	.-4      	; 0x146e <lcd_spielereien+0x24>
		{
			// wait 1/10 ms
			_delay_loop_2(((F_CPU) / 4e3) / 10);
			__ticks --;
    1472:	01 97       	sbiw	r24, 0x01	; 1
		__ticks = 1;
	else if (__tmp > 65535)
	{
		//	__ticks = requested delay in 1/10 ms
		__ticks = (uint16_t) (__ms * 10.0);
		while(__ticks)
    1474:	d9 f7       	brne	.-10     	; 0x146c <lcd_spielereien+0x22>
	_delay_ms(200);
	lcd_my_type("Have a nice Day!\n");
    1476:	8f e3       	ldi	r24, 0x3F	; 63
    1478:	94 e0       	ldi	r25, 0x04	; 4
    147a:	0e 94 f4 09 	call	0x13e8	; 0x13e8 <lcd_my_type>
    147e:	88 e8       	ldi	r24, 0x88	; 136
    1480:	93 e1       	ldi	r25, 0x13	; 19
    1482:	28 ec       	ldi	r18, 0xC8	; 200
    1484:	30 e0       	ldi	r19, 0x00	; 0
    1486:	f9 01       	movw	r30, r18
    1488:	31 97       	sbiw	r30, 0x01	; 1
    148a:	f1 f7       	brne	.-4      	; 0x1488 <lcd_spielereien+0x3e>
		{
			// wait 1/10 ms
			_delay_loop_2(((F_CPU) / 4e3) / 10);
			__ticks --;
    148c:	01 97       	sbiw	r24, 0x01	; 1
		__ticks = 1;
	else if (__tmp > 65535)
	{
		//	__ticks = requested delay in 1/10 ms
		__ticks = (uint16_t) (__ms * 10.0);
		while(__ticks)
    148e:	d9 f7       	brne	.-10     	; 0x1486 <lcd_spielereien+0x3c>
	_delay_ms(500);
	lcd_my_type("Be a Honey Bee!\n");
    1490:	81 e5       	ldi	r24, 0x51	; 81
    1492:	94 e0       	ldi	r25, 0x04	; 4
    1494:	0e 94 f4 09 	call	0x13e8	; 0x13e8 <lcd_my_type>
    1498:	80 e7       	ldi	r24, 0x70	; 112
    149a:	97 e1       	ldi	r25, 0x17	; 23
    149c:	28 ec       	ldi	r18, 0xC8	; 200
    149e:	30 e0       	ldi	r19, 0x00	; 0
    14a0:	f9 01       	movw	r30, r18
    14a2:	31 97       	sbiw	r30, 0x01	; 1
    14a4:	f1 f7       	brne	.-4      	; 0x14a2 <lcd_spielereien+0x58>
		{
			// wait 1/10 ms
			_delay_loop_2(((F_CPU) / 4e3) / 10);
			__ticks --;
    14a6:	01 97       	sbiw	r24, 0x01	; 1
		__ticks = 1;
	else if (__tmp > 65535)
	{
		//	__ticks = requested delay in 1/10 ms
		__ticks = (uint16_t) (__ms * 10.0);
		while(__ticks)
    14a8:	d9 f7       	brne	.-10     	; 0x14a0 <lcd_spielereien+0x56>
	_delay_ms(600);
	lcd_clrscr();
    14aa:	0e 94 29 01 	call	0x252	; 0x252 <lcd_clrscr>
}
    14ae:	08 95       	ret

000014b0 <menu_display>:
/*
 * Display the current menu in the context
 */
 
void menu_display(menu_context_t *context)
{
    14b0:	9f 92       	push	r9
    14b2:	af 92       	push	r10
    14b4:	bf 92       	push	r11
    14b6:	cf 92       	push	r12
    14b8:	df 92       	push	r13
    14ba:	ef 92       	push	r14
    14bc:	ff 92       	push	r15
    14be:	0f 93       	push	r16
    14c0:	1f 93       	push	r17
    14c2:	cf 93       	push	r28
    14c4:	df 93       	push	r29
    14c6:	7c 01       	movw	r14, r24
	uint8_t i;
	menu_t *menu = context->menu;
    14c8:	fc 01       	movw	r30, r24
    14ca:	c4 80       	ldd	r12, Z+4	; 0x04
    14cc:	d5 80       	ldd	r13, Z+5	; 0x05
    14ce:	bb 24       	eor	r11, r11
    14d0:	99 24       	eor	r9, r9
    14d2:	52 c0       	rjmp	.+164    	; 0x1578 <menu_display+0xc8>

#ifndef CONFIG_TINYMENU_COMPACT
		// Don't display hidden menu entries

		do {
			disp_entry = &menu->entry[menu->top_entry + dindex];
    14d4:	e9 2d       	mov	r30, r9
    14d6:	f0 e0       	ldi	r31, 0x00	; 0
			if (dindex++ >= menu->num_entries - menu->top_entry)
    14d8:	e2 17       	cp	r30, r18
    14da:	f3 07       	cpc	r31, r19
    14dc:	0c f0       	brlt	.+2      	; 0x14e0 <menu_display+0x30>
    14de:	6b c0       	rjmp	.+214    	; 0x15b6 <menu_display+0x106>

#ifndef CONFIG_TINYMENU_COMPACT
		// Don't display hidden menu entries

		do {
			disp_entry = &menu->entry[menu->top_entry + dindex];
    14e0:	8f 01       	movw	r16, r30
    14e2:	04 0f       	add	r16, r20
    14e4:	15 1f       	adc	r17, r21
			if (dindex++ >= menu->num_entries - menu->top_entry)
    14e6:	93 94       	inc	r9
				goto entries_done;
		} while (disp_entry->flags & MENU_FLAG_HIDDEN);
    14e8:	f8 01       	movw	r30, r16
    14ea:	ee 0f       	add	r30, r30
    14ec:	ff 1f       	adc	r31, r31
    14ee:	e0 0f       	add	r30, r16
    14f0:	f1 1f       	adc	r31, r17
    14f2:	63 e0       	ldi	r22, 0x03	; 3
    14f4:	ee 0f       	add	r30, r30
    14f6:	ff 1f       	adc	r31, r31
    14f8:	6a 95       	dec	r22
    14fa:	e1 f7       	brne	.-8      	; 0x14f4 <menu_display+0x44>
    14fc:	ec 0d       	add	r30, r12
    14fe:	fd 1d       	adc	r31, r13
    1500:	85 81       	ldd	r24, Z+5	; 0x05
    1502:	81 fd       	sbrc	r24, 1
    1504:	e7 cf       	rjmp	.-50     	; 0x14d4 <menu_display+0x24>
			return;
#endif

		// Go to correct x,y locations and print the entry

		menu_set_pos(context->x_loc, context->y_loc + i);
    1506:	f7 01       	movw	r30, r14
    1508:	61 81       	ldd	r22, Z+1	; 0x01
    150a:	6b 0d       	add	r22, r11
    150c:	80 81       	ld	r24, Z
    150e:	0e 94 15 01 	call	0x22a	; 0x22a <lcd_gotoxy>
	if (selected)
		menu_set_inverse();
#else
	// No inverse; do workaround

	max_width--;
    1512:	f7 01       	movw	r30, r14
    1514:	a3 80       	ldd	r10, Z+3	; 0x03
    1516:	aa 94       	dec	r10
	if (selected) {
    1518:	f6 01       	movw	r30, r12
    151a:	21 81       	ldd	r18, Z+1	; 0x01
    151c:	30 e0       	ldi	r19, 0x00	; 0
    151e:	2f 5f       	subi	r18, 0xFF	; 255
    1520:	3f 4f       	sbci	r19, 0xFF	; 255
    1522:	80 81       	ld	r24, Z
    1524:	90 e0       	ldi	r25, 0x00	; 0
    1526:	89 0d       	add	r24, r9
    1528:	91 1d       	adc	r25, r1
    152a:	28 17       	cp	r18, r24
    152c:	39 07       	cpc	r19, r25
    152e:	11 f4       	brne	.+4      	; 0x1534 <menu_display+0x84>
		menu_putchar('*');
    1530:	8a e2       	ldi	r24, 0x2A	; 42
    1532:	01 c0       	rjmp	.+2      	; 0x1536 <menu_display+0x86>
	} else {
		menu_putchar(' ');
    1534:	80 e2       	ldi	r24, 0x20	; 32
    1536:	0e 94 31 01 	call	0x262	; 0x262 <lcd_putc>
    153a:	e8 01       	movw	r28, r16
    153c:	cc 0f       	add	r28, r28
    153e:	dd 1f       	adc	r29, r29
    1540:	c0 0f       	add	r28, r16
    1542:	d1 1f       	adc	r29, r17
    1544:	21 96       	adiw	r28, 0x01	; 1
    1546:	83 e0       	ldi	r24, 0x03	; 3
    1548:	cc 0f       	add	r28, r28
    154a:	dd 1f       	adc	r29, r29
    154c:	8a 95       	dec	r24
    154e:	e1 f7       	brne	.-8      	; 0x1548 <menu_display+0x98>
    1550:	cc 0d       	add	r28, r12
    1552:	dd 1d       	adc	r29, r13
    1554:	10 e0       	ldi	r17, 0x00	; 0
    1556:	06 c0       	rjmp	.+12     	; 0x1564 <menu_display+0xb4>
	
	// Print the characters in the name; fill out to width with
	//  spaces (mainly for inverse)
	
	for (i = 0; i < max_width; i++) {
		if (!entry->name[i])
    1558:	89 91       	ld	r24, Y+
    155a:	88 23       	and	r24, r24
    155c:	31 f0       	breq	.+12     	; 0x156a <menu_display+0xba>
			break;
			
		menu_putchar(entry->name[i]);
    155e:	0e 94 31 01 	call	0x262	; 0x262 <lcd_putc>
#endif		
	
	// Print the characters in the name; fill out to width with
	//  spaces (mainly for inverse)
	
	for (i = 0; i < max_width; i++) {
    1562:	1f 5f       	subi	r17, 0xFF	; 255
    1564:	1a 15       	cp	r17, r10
    1566:	c0 f3       	brcs	.-16     	; 0x1558 <menu_display+0xa8>
    1568:	06 c0       	rjmp	.+12     	; 0x1576 <menu_display+0xc6>
			
		menu_putchar(entry->name[i]);
	}
	
	for (; i < max_width; i++)
		menu_putchar(' ');
    156a:	80 e2       	ldi	r24, 0x20	; 32
    156c:	0e 94 31 01 	call	0x262	; 0x262 <lcd_putc>
			break;
			
		menu_putchar(entry->name[i]);
	}
	
	for (; i < max_width; i++)
    1570:	1f 5f       	subi	r17, 0xFF	; 255
    1572:	1a 15       	cp	r17, r10
    1574:	d0 f3       	brcs	.-12     	; 0x156a <menu_display+0xba>
	menu_clear();
#endif

	// Display only those entries that will fit on the display

	for (i = 0; i < context->height; i++) {
    1576:	b3 94       	inc	r11
    1578:	f7 01       	movw	r30, r14
    157a:	82 81       	ldd	r24, Z+2	; 0x02
    157c:	b8 16       	cp	r11, r24
    157e:	d8 f4       	brcc	.+54     	; 0x15b6 <menu_display+0x106>

#ifndef CONFIG_TINYMENU_COMPACT
		// Don't display hidden menu entries

		do {
			disp_entry = &menu->entry[menu->top_entry + dindex];
    1580:	f6 01       	movw	r30, r12
    1582:	80 81       	ld	r24, Z
    1584:	48 2f       	mov	r20, r24
    1586:	50 e0       	ldi	r21, 0x00	; 0
			if (dindex++ >= menu->num_entries - menu->top_entry)
    1588:	82 81       	ldd	r24, Z+2	; 0x02
    158a:	28 2f       	mov	r18, r24
    158c:	30 e0       	ldi	r19, 0x00	; 0
    158e:	24 1b       	sub	r18, r20
    1590:	35 0b       	sbc	r19, r21
    1592:	a0 cf       	rjmp	.-192    	; 0x14d4 <menu_display+0x24>

#ifndef CONFIG_TINYMENU_USE_CLEAR
	// Fill rest of menu screen space with spaces

	for (; i < context->height; i++) {
		menu_set_pos(context->x_loc, context->y_loc + i);
    1594:	f7 01       	movw	r30, r14
    1596:	61 81       	ldd	r22, Z+1	; 0x01
    1598:	6b 0d       	add	r22, r11
    159a:	80 81       	ld	r24, Z
    159c:	0e 94 15 01 	call	0x22a	; 0x22a <lcd_gotoxy>
    15a0:	10 e0       	ldi	r17, 0x00	; 0
    15a2:	04 c0       	rjmp	.+8      	; 0x15ac <menu_display+0xfc>
		for (j = 0; j < context->width; j++) {
			menu_putchar(' ');
    15a4:	80 e2       	ldi	r24, 0x20	; 32
    15a6:	0e 94 31 01 	call	0x262	; 0x262 <lcd_putc>
#ifndef CONFIG_TINYMENU_USE_CLEAR
	// Fill rest of menu screen space with spaces

	for (; i < context->height; i++) {
		menu_set_pos(context->x_loc, context->y_loc + i);
		for (j = 0; j < context->width; j++) {
    15aa:	1f 5f       	subi	r17, 0xFF	; 255
    15ac:	f7 01       	movw	r30, r14
    15ae:	83 81       	ldd	r24, Z+3	; 0x03
    15b0:	18 17       	cp	r17, r24
    15b2:	c0 f3       	brcs	.-16     	; 0x15a4 <menu_display+0xf4>
entries_done:

#ifndef CONFIG_TINYMENU_USE_CLEAR
	// Fill rest of menu screen space with spaces

	for (; i < context->height; i++) {
    15b4:	b3 94       	inc	r11
    15b6:	f7 01       	movw	r30, r14
    15b8:	82 81       	ldd	r24, Z+2	; 0x02
    15ba:	b8 16       	cp	r11, r24
    15bc:	58 f3       	brcs	.-42     	; 0x1594 <menu_display+0xe4>
		for (j = 0; j < context->width; j++) {
			menu_putchar(' ');
		}
	}	
#endif	
}
    15be:	df 91       	pop	r29
    15c0:	cf 91       	pop	r28
    15c2:	1f 91       	pop	r17
    15c4:	0f 91       	pop	r16
    15c6:	ff 90       	pop	r15
    15c8:	ef 90       	pop	r14
    15ca:	df 90       	pop	r13
    15cc:	cf 90       	pop	r12
    15ce:	bf 90       	pop	r11
    15d0:	af 90       	pop	r10
    15d2:	9f 90       	pop	r9
    15d4:	08 95       	ret

000015d6 <menu_enter>:
 *  so when we exit we can go back, and update the menu context to
 *  reflect new menu... then display it.
 */

void menu_enter(menu_context_t *context, menu_t *menu)
{
    15d6:	fc 01       	movw	r30, r24
    15d8:	db 01       	movw	r26, r22
	menu->previous = context->menu;
    15da:	84 81       	ldd	r24, Z+4	; 0x04
    15dc:	95 81       	ldd	r25, Z+5	; 0x05
    15de:	14 96       	adiw	r26, 0x04	; 4
    15e0:	9c 93       	st	X, r25
    15e2:	8e 93       	st	-X, r24
    15e4:	13 97       	sbiw	r26, 0x03	; 3
	context->menu = menu;
    15e6:	75 83       	std	Z+5, r23	; 0x05
    15e8:	64 83       	std	Z+4, r22	; 0x04
	menu_display(context);
    15ea:	cf 01       	movw	r24, r30
    15ec:	0e 94 58 0a 	call	0x14b0	; 0x14b0 <menu_display>
}
    15f0:	08 95       	ret

000015f2 <menu_exit>:
 * Exit a menu (go to the previous menu) -- if there is no previous
 *  menu, don't do anything.
 */

void menu_exit(menu_context_t *context)
{
    15f2:	dc 01       	movw	r26, r24
	if (context->menu->previous) {
    15f4:	14 96       	adiw	r26, 0x04	; 4
    15f6:	ed 91       	ld	r30, X+
    15f8:	fc 91       	ld	r31, X
    15fa:	15 97       	sbiw	r26, 0x05	; 5
    15fc:	83 81       	ldd	r24, Z+3	; 0x03
    15fe:	94 81       	ldd	r25, Z+4	; 0x04
    1600:	00 97       	sbiw	r24, 0x00	; 0
    1602:	39 f0       	breq	.+14     	; 0x1612 <menu_exit+0x20>
		context->menu = context->menu->previous;
    1604:	15 96       	adiw	r26, 0x05	; 5
    1606:	9c 93       	st	X, r25
    1608:	8e 93       	st	-X, r24
    160a:	14 97       	sbiw	r26, 0x04	; 4
		menu_display(context);
    160c:	cd 01       	movw	r24, r26
    160e:	0e 94 58 0a 	call	0x14b0	; 0x14b0 <menu_display>
    1612:	08 95       	ret

00001614 <menu_prev_entry>:
 *  bounds.  Also adjust current top entry in display if needed to fit new
 *  entry on display.
 */ 

void menu_prev_entry(menu_context_t *context)
{
    1614:	cf 93       	push	r28
    1616:	df 93       	push	r29
    1618:	ec 01       	movw	r28, r24
	menu_t *menu = context->menu;
    161a:	ac 81       	ldd	r26, Y+4	; 0x04
    161c:	bd 81       	ldd	r27, Y+5	; 0x05
	uint8_t new_entry = menu->current_entry;
    161e:	11 96       	adiw	r26, 0x01	; 1
    1620:	2c 91       	ld	r18, X
    1622:	11 97       	sbiw	r26, 0x01	; 1
	

#ifndef CONFIG_TINYMENU_COMPACT
	while(1) {
		if (new_entry-- == 0) // Watch bounds
    1624:	22 23       	and	r18, r18
    1626:	e1 f0       	breq	.+56     	; 0x1660 <menu_prev_entry+0x4c>
    1628:	21 50       	subi	r18, 0x01	; 1
			return;
			
		if (!(menu->entry[new_entry].flags & MENU_FLAG_HIDDEN))
    162a:	82 2f       	mov	r24, r18
    162c:	90 e0       	ldi	r25, 0x00	; 0
    162e:	fc 01       	movw	r30, r24
    1630:	ee 0f       	add	r30, r30
    1632:	ff 1f       	adc	r31, r31
    1634:	e8 0f       	add	r30, r24
    1636:	f9 1f       	adc	r31, r25
    1638:	83 e0       	ldi	r24, 0x03	; 3
    163a:	ee 0f       	add	r30, r30
    163c:	ff 1f       	adc	r31, r31
    163e:	8a 95       	dec	r24
    1640:	e1 f7       	brne	.-8      	; 0x163a <menu_prev_entry+0x26>
    1642:	ea 0f       	add	r30, r26
    1644:	fb 1f       	adc	r31, r27
    1646:	85 81       	ldd	r24, Z+5	; 0x05
    1648:	81 fd       	sbrc	r24, 1
    164a:	ec cf       	rjmp	.-40     	; 0x1624 <menu_prev_entry+0x10>
#else
	if (new_entry-- == 0)
		return;
#endif
	
	menu->current_entry = new_entry;
    164c:	11 96       	adiw	r26, 0x01	; 1
    164e:	2c 93       	st	X, r18
    1650:	11 97       	sbiw	r26, 0x01	; 1
	
	if (menu->current_entry < menu->top_entry) 
    1652:	8c 91       	ld	r24, X
    1654:	28 17       	cp	r18, r24
    1656:	08 f4       	brcc	.+2      	; 0x165a <menu_prev_entry+0x46>
		menu->top_entry = menu->current_entry;
    1658:	2c 93       	st	X, r18
		
	menu_display(context);
    165a:	ce 01       	movw	r24, r28
    165c:	0e 94 58 0a 	call	0x14b0	; 0x14b0 <menu_display>
}
    1660:	df 91       	pop	r29
    1662:	cf 91       	pop	r28
    1664:	08 95       	ret

00001666 <menu_next_entry>:
 *  Also adjust current top entry in display if needed to fit new entry
 *  on display
 */
 
void menu_next_entry(menu_context_t *context)
{
    1666:	cf 93       	push	r28
    1668:	df 93       	push	r29
    166a:	ec 01       	movw	r28, r24
	menu_t *menu = context->menu;
    166c:	ac 81       	ldd	r26, Y+4	; 0x04
    166e:	bd 81       	ldd	r27, Y+5	; 0x05
	uint8_t new_entry = menu->current_entry;
    1670:	11 96       	adiw	r26, 0x01	; 1
    1672:	2c 91       	ld	r18, X
    1674:	11 97       	sbiw	r26, 0x01	; 1
	

#ifndef CONFIG_TINYMENU_COMPACT
	while(1) {
		if (++new_entry >= menu->num_entries) // watch bounds
    1676:	12 96       	adiw	r26, 0x02	; 2
    1678:	9c 91       	ld	r25, X
    167a:	12 97       	sbiw	r26, 0x02	; 2
    167c:	2f 5f       	subi	r18, 0xFF	; 255
    167e:	29 17       	cp	r18, r25
    1680:	10 f5       	brcc	.+68     	; 0x16c6 <menu_next_entry+0x60>
			return;
		if (!(menu->entry[new_entry].flags & MENU_FLAG_HIDDEN))
    1682:	42 2f       	mov	r20, r18
    1684:	50 e0       	ldi	r21, 0x00	; 0
    1686:	fa 01       	movw	r30, r20
    1688:	ee 0f       	add	r30, r30
    168a:	ff 1f       	adc	r31, r31
    168c:	e4 0f       	add	r30, r20
    168e:	f5 1f       	adc	r31, r21
    1690:	63 e0       	ldi	r22, 0x03	; 3
    1692:	ee 0f       	add	r30, r30
    1694:	ff 1f       	adc	r31, r31
    1696:	6a 95       	dec	r22
    1698:	e1 f7       	brne	.-8      	; 0x1692 <menu_next_entry+0x2c>
    169a:	ea 0f       	add	r30, r26
    169c:	fb 1f       	adc	r31, r27
    169e:	85 81       	ldd	r24, Z+5	; 0x05
    16a0:	81 fd       	sbrc	r24, 1
    16a2:	ec cf       	rjmp	.-40     	; 0x167c <menu_next_entry+0x16>
#else
	if (++new_entry >= menu->num_entries)
		return;
#endif
	
	menu->current_entry = new_entry;
    16a4:	11 96       	adiw	r26, 0x01	; 1
    16a6:	2c 93       	st	X, r18
    16a8:	11 97       	sbiw	r26, 0x01	; 1
	
	if (menu->current_entry >= menu->top_entry + context->height)
    16aa:	3a 81       	ldd	r19, Y+2	; 0x02
    16ac:	8c 91       	ld	r24, X
    16ae:	90 e0       	ldi	r25, 0x00	; 0
    16b0:	83 0f       	add	r24, r19
    16b2:	91 1d       	adc	r25, r1
    16b4:	48 17       	cp	r20, r24
    16b6:	59 07       	cpc	r21, r25
    16b8:	1c f0       	brlt	.+6      	; 0x16c0 <menu_next_entry+0x5a>
		menu->top_entry = menu->current_entry - context->height + 1;
    16ba:	23 1b       	sub	r18, r19
    16bc:	2f 5f       	subi	r18, 0xFF	; 255
    16be:	2c 93       	st	X, r18
	
	menu_display(context);
    16c0:	ce 01       	movw	r24, r28
    16c2:	0e 94 58 0a 	call	0x14b0	; 0x14b0 <menu_display>
}
    16c6:	df 91       	pop	r29
    16c8:	cf 91       	pop	r28
    16ca:	08 95       	ret

000016cc <menu_select>:
 *  enter the submenu)
 *
 */

void menu_select(menu_context_t *context)
{
    16cc:	0f 93       	push	r16
    16ce:	1f 93       	push	r17
    16d0:	cf 93       	push	r28
    16d2:	df 93       	push	r29
    16d4:	8c 01       	movw	r16, r24
	menu_entry_t *entry;


	entry = &context->menu->entry[context->menu->current_entry];
    16d6:	fc 01       	movw	r30, r24
    16d8:	c4 81       	ldd	r28, Z+4	; 0x04
    16da:	d5 81       	ldd	r29, Z+5	; 0x05
    16dc:	89 81       	ldd	r24, Y+1	; 0x01
    16de:	90 e0       	ldi	r25, 0x00	; 0

	if (entry->flags & MENU_FLAG_SUBMENU) {
    16e0:	9c 01       	movw	r18, r24
    16e2:	22 0f       	add	r18, r18
    16e4:	33 1f       	adc	r19, r19
    16e6:	28 0f       	add	r18, r24
    16e8:	39 1f       	adc	r19, r25
    16ea:	d9 01       	movw	r26, r18
    16ec:	f3 e0       	ldi	r31, 0x03	; 3
    16ee:	aa 0f       	add	r26, r26
    16f0:	bb 1f       	adc	r27, r27
    16f2:	fa 95       	dec	r31
    16f4:	e1 f7       	brne	.-8      	; 0x16ee <menu_select+0x22>
    16f6:	ac 0f       	add	r26, r28
    16f8:	bd 1f       	adc	r27, r29
    16fa:	15 96       	adiw	r26, 0x05	; 5
    16fc:	8c 91       	ld	r24, X
    16fe:	15 97       	sbiw	r26, 0x05	; 5
    1700:	80 ff       	sbrs	r24, 0
    1702:	08 c0       	rjmp	.+16     	; 0x1714 <menu_select+0x48>
		// Submenu -- enter it
	
		menu_enter(context, (menu_t *)entry->value);
    1704:	5b 96       	adiw	r26, 0x1b	; 27
    1706:	6d 91       	ld	r22, X+
    1708:	7c 91       	ld	r23, X
    170a:	5c 97       	sbiw	r26, 0x1c	; 28
    170c:	c8 01       	movw	r24, r16
    170e:	0e 94 eb 0a 	call	0x15d6	; 0x15d6 <menu_enter>
    1712:	13 c0       	rjmp	.+38     	; 0x173a <menu_select+0x6e>
	} else {
		// Regular entry -- execute function
	
		entry->select(entry->value, entry->name);
    1714:	c9 01       	movw	r24, r18
    1716:	01 96       	adiw	r24, 0x01	; 1
    1718:	e3 e0       	ldi	r30, 0x03	; 3
    171a:	88 0f       	add	r24, r24
    171c:	99 1f       	adc	r25, r25
    171e:	ea 95       	dec	r30
    1720:	e1 f7       	brne	.-8      	; 0x171a <menu_select+0x4e>
    1722:	c8 0f       	add	r28, r24
    1724:	d9 1f       	adc	r29, r25
    1726:	16 96       	adiw	r26, 0x06	; 6
    1728:	ed 91       	ld	r30, X+
    172a:	fc 91       	ld	r31, X
    172c:	17 97       	sbiw	r26, 0x07	; 7
    172e:	5b 96       	adiw	r26, 0x1b	; 27
    1730:	8d 91       	ld	r24, X+
    1732:	9c 91       	ld	r25, X
    1734:	5c 97       	sbiw	r26, 0x1c	; 28
    1736:	be 01       	movw	r22, r28
    1738:	09 95       	icall
	}
	
	// Re-display menu on return
	
	menu_display(context);
    173a:	c8 01       	movw	r24, r16
    173c:	0e 94 58 0a 	call	0x14b0	; 0x14b0 <menu_display>
}
    1740:	df 91       	pop	r29
    1742:	cf 91       	pop	r28
    1744:	1f 91       	pop	r17
    1746:	0f 91       	pop	r16
    1748:	08 95       	ret

0000174a <__mulsi3>:
    174a:	62 9f       	mul	r22, r18
    174c:	d0 01       	movw	r26, r0
    174e:	73 9f       	mul	r23, r19
    1750:	f0 01       	movw	r30, r0
    1752:	82 9f       	mul	r24, r18
    1754:	e0 0d       	add	r30, r0
    1756:	f1 1d       	adc	r31, r1
    1758:	64 9f       	mul	r22, r20
    175a:	e0 0d       	add	r30, r0
    175c:	f1 1d       	adc	r31, r1
    175e:	92 9f       	mul	r25, r18
    1760:	f0 0d       	add	r31, r0
    1762:	83 9f       	mul	r24, r19
    1764:	f0 0d       	add	r31, r0
    1766:	74 9f       	mul	r23, r20
    1768:	f0 0d       	add	r31, r0
    176a:	65 9f       	mul	r22, r21
    176c:	f0 0d       	add	r31, r0
    176e:	99 27       	eor	r25, r25
    1770:	72 9f       	mul	r23, r18
    1772:	b0 0d       	add	r27, r0
    1774:	e1 1d       	adc	r30, r1
    1776:	f9 1f       	adc	r31, r25
    1778:	63 9f       	mul	r22, r19
    177a:	b0 0d       	add	r27, r0
    177c:	e1 1d       	adc	r30, r1
    177e:	f9 1f       	adc	r31, r25
    1780:	bd 01       	movw	r22, r26
    1782:	cf 01       	movw	r24, r30
    1784:	11 24       	eor	r1, r1
    1786:	08 95       	ret

00001788 <__divmodhi4>:
    1788:	97 fb       	bst	r25, 7
    178a:	09 2e       	mov	r0, r25
    178c:	07 26       	eor	r0, r23
    178e:	0a d0       	rcall	.+20     	; 0x17a4 <__divmodhi4_neg1>
    1790:	77 fd       	sbrc	r23, 7
    1792:	04 d0       	rcall	.+8      	; 0x179c <__divmodhi4_neg2>
    1794:	27 d0       	rcall	.+78     	; 0x17e4 <__udivmodhi4>
    1796:	06 d0       	rcall	.+12     	; 0x17a4 <__divmodhi4_neg1>
    1798:	00 20       	and	r0, r0
    179a:	1a f4       	brpl	.+6      	; 0x17a2 <__divmodhi4_exit>

0000179c <__divmodhi4_neg2>:
    179c:	70 95       	com	r23
    179e:	61 95       	neg	r22
    17a0:	7f 4f       	sbci	r23, 0xFF	; 255

000017a2 <__divmodhi4_exit>:
    17a2:	08 95       	ret

000017a4 <__divmodhi4_neg1>:
    17a4:	f6 f7       	brtc	.-4      	; 0x17a2 <__divmodhi4_exit>
    17a6:	90 95       	com	r25
    17a8:	81 95       	neg	r24
    17aa:	9f 4f       	sbci	r25, 0xFF	; 255
    17ac:	08 95       	ret

000017ae <__divmodsi4>:
    17ae:	97 fb       	bst	r25, 7
    17b0:	09 2e       	mov	r0, r25
    17b2:	05 26       	eor	r0, r21
    17b4:	0e d0       	rcall	.+28     	; 0x17d2 <__divmodsi4_neg1>
    17b6:	57 fd       	sbrc	r21, 7
    17b8:	04 d0       	rcall	.+8      	; 0x17c2 <__divmodsi4_neg2>
    17ba:	28 d0       	rcall	.+80     	; 0x180c <__udivmodsi4>
    17bc:	0a d0       	rcall	.+20     	; 0x17d2 <__divmodsi4_neg1>
    17be:	00 1c       	adc	r0, r0
    17c0:	38 f4       	brcc	.+14     	; 0x17d0 <__divmodsi4_exit>

000017c2 <__divmodsi4_neg2>:
    17c2:	50 95       	com	r21
    17c4:	40 95       	com	r20
    17c6:	30 95       	com	r19
    17c8:	21 95       	neg	r18
    17ca:	3f 4f       	sbci	r19, 0xFF	; 255
    17cc:	4f 4f       	sbci	r20, 0xFF	; 255
    17ce:	5f 4f       	sbci	r21, 0xFF	; 255

000017d0 <__divmodsi4_exit>:
    17d0:	08 95       	ret

000017d2 <__divmodsi4_neg1>:
    17d2:	f6 f7       	brtc	.-4      	; 0x17d0 <__divmodsi4_exit>
    17d4:	90 95       	com	r25
    17d6:	80 95       	com	r24
    17d8:	70 95       	com	r23
    17da:	61 95       	neg	r22
    17dc:	7f 4f       	sbci	r23, 0xFF	; 255
    17de:	8f 4f       	sbci	r24, 0xFF	; 255
    17e0:	9f 4f       	sbci	r25, 0xFF	; 255
    17e2:	08 95       	ret

000017e4 <__udivmodhi4>:
    17e4:	aa 1b       	sub	r26, r26
    17e6:	bb 1b       	sub	r27, r27
    17e8:	51 e1       	ldi	r21, 0x11	; 17
    17ea:	07 c0       	rjmp	.+14     	; 0x17fa <__udivmodhi4_ep>

000017ec <__udivmodhi4_loop>:
    17ec:	aa 1f       	adc	r26, r26
    17ee:	bb 1f       	adc	r27, r27
    17f0:	a6 17       	cp	r26, r22
    17f2:	b7 07       	cpc	r27, r23
    17f4:	10 f0       	brcs	.+4      	; 0x17fa <__udivmodhi4_ep>
    17f6:	a6 1b       	sub	r26, r22
    17f8:	b7 0b       	sbc	r27, r23

000017fa <__udivmodhi4_ep>:
    17fa:	88 1f       	adc	r24, r24
    17fc:	99 1f       	adc	r25, r25
    17fe:	5a 95       	dec	r21
    1800:	a9 f7       	brne	.-22     	; 0x17ec <__udivmodhi4_loop>
    1802:	80 95       	com	r24
    1804:	90 95       	com	r25
    1806:	bc 01       	movw	r22, r24
    1808:	cd 01       	movw	r24, r26
    180a:	08 95       	ret

0000180c <__udivmodsi4>:
    180c:	a1 e2       	ldi	r26, 0x21	; 33
    180e:	1a 2e       	mov	r1, r26
    1810:	aa 1b       	sub	r26, r26
    1812:	bb 1b       	sub	r27, r27
    1814:	fd 01       	movw	r30, r26
    1816:	0d c0       	rjmp	.+26     	; 0x1832 <__udivmodsi4_ep>

00001818 <__udivmodsi4_loop>:
    1818:	aa 1f       	adc	r26, r26
    181a:	bb 1f       	adc	r27, r27
    181c:	ee 1f       	adc	r30, r30
    181e:	ff 1f       	adc	r31, r31
    1820:	a2 17       	cp	r26, r18
    1822:	b3 07       	cpc	r27, r19
    1824:	e4 07       	cpc	r30, r20
    1826:	f5 07       	cpc	r31, r21
    1828:	20 f0       	brcs	.+8      	; 0x1832 <__udivmodsi4_ep>
    182a:	a2 1b       	sub	r26, r18
    182c:	b3 0b       	sbc	r27, r19
    182e:	e4 0b       	sbc	r30, r20
    1830:	f5 0b       	sbc	r31, r21

00001832 <__udivmodsi4_ep>:
    1832:	66 1f       	adc	r22, r22
    1834:	77 1f       	adc	r23, r23
    1836:	88 1f       	adc	r24, r24
    1838:	99 1f       	adc	r25, r25
    183a:	1a 94       	dec	r1
    183c:	69 f7       	brne	.-38     	; 0x1818 <__udivmodsi4_loop>
    183e:	60 95       	com	r22
    1840:	70 95       	com	r23
    1842:	80 95       	com	r24
    1844:	90 95       	com	r25
    1846:	9b 01       	movw	r18, r22
    1848:	ac 01       	movw	r20, r24
    184a:	bd 01       	movw	r22, r26
    184c:	cf 01       	movw	r24, r30
    184e:	08 95       	ret

00001850 <do_rand>:
    1850:	a0 e0       	ldi	r26, 0x00	; 0
    1852:	b0 e0       	ldi	r27, 0x00	; 0
    1854:	ee e2       	ldi	r30, 0x2E	; 46
    1856:	fc e0       	ldi	r31, 0x0C	; 12
    1858:	0c 94 8a 0d 	jmp	0x1b14	; 0x1b14 <__prologue_saves__+0x10>
    185c:	ec 01       	movw	r28, r24
    185e:	a8 80       	ld	r10, Y
    1860:	b9 80       	ldd	r11, Y+1	; 0x01
    1862:	ca 80       	ldd	r12, Y+2	; 0x02
    1864:	db 80       	ldd	r13, Y+3	; 0x03
    1866:	a1 14       	cp	r10, r1
    1868:	b1 04       	cpc	r11, r1
    186a:	c1 04       	cpc	r12, r1
    186c:	d1 04       	cpc	r13, r1
    186e:	41 f4       	brne	.+16     	; 0x1880 <do_rand+0x30>
    1870:	84 e2       	ldi	r24, 0x24	; 36
    1872:	a8 2e       	mov	r10, r24
    1874:	89 ed       	ldi	r24, 0xD9	; 217
    1876:	b8 2e       	mov	r11, r24
    1878:	8b e5       	ldi	r24, 0x5B	; 91
    187a:	c8 2e       	mov	r12, r24
    187c:	87 e0       	ldi	r24, 0x07	; 7
    187e:	d8 2e       	mov	r13, r24
    1880:	c6 01       	movw	r24, r12
    1882:	b5 01       	movw	r22, r10
    1884:	2d e1       	ldi	r18, 0x1D	; 29
    1886:	33 ef       	ldi	r19, 0xF3	; 243
    1888:	41 e0       	ldi	r20, 0x01	; 1
    188a:	50 e0       	ldi	r21, 0x00	; 0
    188c:	0e 94 d7 0b 	call	0x17ae	; 0x17ae <__divmodsi4>
    1890:	27 ea       	ldi	r18, 0xA7	; 167
    1892:	31 e4       	ldi	r19, 0x41	; 65
    1894:	40 e0       	ldi	r20, 0x00	; 0
    1896:	50 e0       	ldi	r21, 0x00	; 0
    1898:	0e 94 a5 0b 	call	0x174a	; 0x174a <__mulsi3>
    189c:	7b 01       	movw	r14, r22
    189e:	8c 01       	movw	r16, r24
    18a0:	c6 01       	movw	r24, r12
    18a2:	b5 01       	movw	r22, r10
    18a4:	2d e1       	ldi	r18, 0x1D	; 29
    18a6:	33 ef       	ldi	r19, 0xF3	; 243
    18a8:	41 e0       	ldi	r20, 0x01	; 1
    18aa:	50 e0       	ldi	r21, 0x00	; 0
    18ac:	0e 94 d7 0b 	call	0x17ae	; 0x17ae <__divmodsi4>
    18b0:	ca 01       	movw	r24, r20
    18b2:	b9 01       	movw	r22, r18
    18b4:	2c ee       	ldi	r18, 0xEC	; 236
    18b6:	34 ef       	ldi	r19, 0xF4	; 244
    18b8:	4f ef       	ldi	r20, 0xFF	; 255
    18ba:	5f ef       	ldi	r21, 0xFF	; 255
    18bc:	0e 94 a5 0b 	call	0x174a	; 0x174a <__mulsi3>
    18c0:	6e 0d       	add	r22, r14
    18c2:	7f 1d       	adc	r23, r15
    18c4:	80 1f       	adc	r24, r16
    18c6:	91 1f       	adc	r25, r17
    18c8:	97 ff       	sbrs	r25, 7
    18ca:	04 c0       	rjmp	.+8      	; 0x18d4 <do_rand+0x84>
    18cc:	61 50       	subi	r22, 0x01	; 1
    18ce:	70 40       	sbci	r23, 0x00	; 0
    18d0:	80 40       	sbci	r24, 0x00	; 0
    18d2:	90 48       	sbci	r25, 0x80	; 128
    18d4:	68 83       	st	Y, r22
    18d6:	79 83       	std	Y+1, r23	; 0x01
    18d8:	8a 83       	std	Y+2, r24	; 0x02
    18da:	9b 83       	std	Y+3, r25	; 0x03
    18dc:	9b 01       	movw	r18, r22
    18de:	3f 77       	andi	r19, 0x7F	; 127
    18e0:	c9 01       	movw	r24, r18
    18e2:	cd b7       	in	r28, 0x3d	; 61
    18e4:	de b7       	in	r29, 0x3e	; 62
    18e6:	ea e0       	ldi	r30, 0x0A	; 10
    18e8:	0c 94 a6 0d 	jmp	0x1b4c	; 0x1b4c <__epilogue_restores__+0x10>

000018ec <rand_r>:
    18ec:	0e 94 28 0c 	call	0x1850	; 0x1850 <do_rand>
    18f0:	08 95       	ret

000018f2 <rand>:
    18f2:	8f e4       	ldi	r24, 0x4F	; 79
    18f4:	95 e0       	ldi	r25, 0x05	; 5
    18f6:	0e 94 28 0c 	call	0x1850	; 0x1850 <do_rand>
    18fa:	08 95       	ret

000018fc <srand>:
    18fc:	a0 e0       	ldi	r26, 0x00	; 0
    18fe:	b0 e0       	ldi	r27, 0x00	; 0
    1900:	80 93 4f 05 	sts	0x054F, r24
    1904:	90 93 50 05 	sts	0x0550, r25
    1908:	a0 93 51 05 	sts	0x0551, r26
    190c:	b0 93 52 05 	sts	0x0552, r27
    1910:	08 95       	ret

00001912 <atoi>:
    1912:	fc 01       	movw	r30, r24
    1914:	88 27       	eor	r24, r24
    1916:	99 27       	eor	r25, r25
    1918:	e8 94       	clt
    191a:	21 91       	ld	r18, Z+
    191c:	20 32       	cpi	r18, 0x20	; 32
    191e:	e9 f3       	breq	.-6      	; 0x191a <atoi+0x8>
    1920:	29 30       	cpi	r18, 0x09	; 9
    1922:	10 f0       	brcs	.+4      	; 0x1928 <atoi+0x16>
    1924:	2e 30       	cpi	r18, 0x0E	; 14
    1926:	c8 f3       	brcs	.-14     	; 0x191a <atoi+0x8>
    1928:	2b 32       	cpi	r18, 0x2B	; 43
    192a:	41 f0       	breq	.+16     	; 0x193c <atoi+0x2a>
    192c:	2d 32       	cpi	r18, 0x2D	; 45
    192e:	39 f4       	brne	.+14     	; 0x193e <atoi+0x2c>
    1930:	68 94       	set
    1932:	04 c0       	rjmp	.+8      	; 0x193c <atoi+0x2a>
    1934:	0e 94 6a 0d 	call	0x1ad4	; 0x1ad4 <__mulhi_const_10>
    1938:	82 0f       	add	r24, r18
    193a:	91 1d       	adc	r25, r1
    193c:	21 91       	ld	r18, Z+
    193e:	20 53       	subi	r18, 0x30	; 48
    1940:	2a 30       	cpi	r18, 0x0A	; 10
    1942:	c0 f3       	brcs	.-16     	; 0x1934 <atoi+0x22>
    1944:	1e f4       	brtc	.+6      	; 0x194c <atoi+0x3a>
    1946:	90 95       	com	r25
    1948:	81 95       	neg	r24
    194a:	9f 4f       	sbci	r25, 0xFF	; 255
    194c:	08 95       	ret

0000194e <atol>:
    194e:	1f 93       	push	r17
    1950:	fc 01       	movw	r30, r24
    1952:	99 27       	eor	r25, r25
    1954:	88 27       	eor	r24, r24
    1956:	bc 01       	movw	r22, r24
    1958:	e8 94       	clt
    195a:	11 91       	ld	r17, Z+
    195c:	10 32       	cpi	r17, 0x20	; 32
    195e:	e9 f3       	breq	.-6      	; 0x195a <atol+0xc>
    1960:	19 30       	cpi	r17, 0x09	; 9
    1962:	10 f0       	brcs	.+4      	; 0x1968 <atol+0x1a>
    1964:	1e 30       	cpi	r17, 0x0E	; 14
    1966:	c8 f3       	brcs	.-14     	; 0x195a <atol+0xc>
    1968:	1b 32       	cpi	r17, 0x2B	; 43
    196a:	51 f0       	breq	.+20     	; 0x1980 <atol+0x32>
    196c:	1d 32       	cpi	r17, 0x2D	; 45
    196e:	49 f4       	brne	.+18     	; 0x1982 <atol+0x34>
    1970:	68 94       	set
    1972:	06 c0       	rjmp	.+12     	; 0x1980 <atol+0x32>
    1974:	0e 94 55 0d 	call	0x1aaa	; 0x1aaa <__mulsi_const_10>
    1978:	61 0f       	add	r22, r17
    197a:	71 1d       	adc	r23, r1
    197c:	81 1d       	adc	r24, r1
    197e:	91 1d       	adc	r25, r1
    1980:	11 91       	ld	r17, Z+
    1982:	10 53       	subi	r17, 0x30	; 48
    1984:	1a 30       	cpi	r17, 0x0A	; 10
    1986:	b0 f3       	brcs	.-20     	; 0x1974 <atol+0x26>
    1988:	3e f4       	brtc	.+14     	; 0x1998 <atol+0x4a>
    198a:	90 95       	com	r25
    198c:	80 95       	com	r24
    198e:	70 95       	com	r23
    1990:	61 95       	neg	r22
    1992:	7f 4f       	sbci	r23, 0xFF	; 255
    1994:	8f 4f       	sbci	r24, 0xFF	; 255
    1996:	9f 4f       	sbci	r25, 0xFF	; 255
    1998:	1f 91       	pop	r17
    199a:	08 95       	ret

0000199c <memcpy_P>:
    199c:	fb 01       	movw	r30, r22
    199e:	dc 01       	movw	r26, r24
    19a0:	02 c0       	rjmp	.+4      	; 0x19a6 <memcpy_P+0xa>
    19a2:	05 90       	lpm	r0, Z+
    19a4:	0d 92       	st	X+, r0
    19a6:	41 50       	subi	r20, 0x01	; 1
    19a8:	50 40       	sbci	r21, 0x00	; 0
    19aa:	d8 f7       	brcc	.-10     	; 0x19a2 <memcpy_P+0x6>
    19ac:	08 95       	ret

000019ae <strcpy_P>:
    19ae:	fb 01       	movw	r30, r22
    19b0:	dc 01       	movw	r26, r24
    19b2:	05 90       	lpm	r0, Z+
    19b4:	0d 92       	st	X+, r0
    19b6:	00 20       	and	r0, r0
    19b8:	e1 f7       	brne	.-8      	; 0x19b2 <strcpy_P+0x4>
    19ba:	08 95       	ret

000019bc <strcat>:
    19bc:	fb 01       	movw	r30, r22
    19be:	dc 01       	movw	r26, r24
    19c0:	0d 90       	ld	r0, X+
    19c2:	00 20       	and	r0, r0
    19c4:	e9 f7       	brne	.-6      	; 0x19c0 <strcat+0x4>
    19c6:	11 97       	sbiw	r26, 0x01	; 1
    19c8:	01 90       	ld	r0, Z+
    19ca:	0d 92       	st	X+, r0
    19cc:	00 20       	and	r0, r0
    19ce:	e1 f7       	brne	.-8      	; 0x19c8 <strcat+0xc>
    19d0:	08 95       	ret

000019d2 <strcmp>:
    19d2:	fb 01       	movw	r30, r22
    19d4:	dc 01       	movw	r26, r24
    19d6:	8d 91       	ld	r24, X+
    19d8:	01 90       	ld	r0, Z+
    19da:	80 19       	sub	r24, r0
    19dc:	01 10       	cpse	r0, r1
    19de:	d9 f3       	breq	.-10     	; 0x19d6 <strcmp+0x4>
    19e0:	99 0b       	sbc	r25, r25
    19e2:	08 95       	ret

000019e4 <strncmp>:
    19e4:	fb 01       	movw	r30, r22
    19e6:	dc 01       	movw	r26, r24
    19e8:	41 50       	subi	r20, 0x01	; 1
    19ea:	50 40       	sbci	r21, 0x00	; 0
    19ec:	30 f0       	brcs	.+12     	; 0x19fa <strncmp+0x16>
    19ee:	8d 91       	ld	r24, X+
    19f0:	01 90       	ld	r0, Z+
    19f2:	80 19       	sub	r24, r0
    19f4:	19 f4       	brne	.+6      	; 0x19fc <strncmp+0x18>
    19f6:	00 20       	and	r0, r0
    19f8:	b9 f7       	brne	.-18     	; 0x19e8 <strncmp+0x4>
    19fa:	88 1b       	sub	r24, r24
    19fc:	99 0b       	sbc	r25, r25
    19fe:	08 95       	ret

00001a00 <itoa>:
    1a00:	fb 01       	movw	r30, r22
    1a02:	9f 01       	movw	r18, r30
    1a04:	e8 94       	clt
    1a06:	42 30       	cpi	r20, 0x02	; 2
    1a08:	c4 f0       	brlt	.+48     	; 0x1a3a <itoa+0x3a>
    1a0a:	45 32       	cpi	r20, 0x25	; 37
    1a0c:	b4 f4       	brge	.+44     	; 0x1a3a <itoa+0x3a>
    1a0e:	4a 30       	cpi	r20, 0x0A	; 10
    1a10:	29 f4       	brne	.+10     	; 0x1a1c <itoa+0x1c>
    1a12:	97 fb       	bst	r25, 7
    1a14:	1e f4       	brtc	.+6      	; 0x1a1c <itoa+0x1c>
    1a16:	90 95       	com	r25
    1a18:	81 95       	neg	r24
    1a1a:	9f 4f       	sbci	r25, 0xFF	; 255
    1a1c:	64 2f       	mov	r22, r20
    1a1e:	77 27       	eor	r23, r23
    1a20:	0e 94 f2 0b 	call	0x17e4	; 0x17e4 <__udivmodhi4>
    1a24:	80 5d       	subi	r24, 0xD0	; 208
    1a26:	8a 33       	cpi	r24, 0x3A	; 58
    1a28:	0c f0       	brlt	.+2      	; 0x1a2c <itoa+0x2c>
    1a2a:	89 5d       	subi	r24, 0xD9	; 217
    1a2c:	81 93       	st	Z+, r24
    1a2e:	cb 01       	movw	r24, r22
    1a30:	00 97       	sbiw	r24, 0x00	; 0
    1a32:	a1 f7       	brne	.-24     	; 0x1a1c <itoa+0x1c>
    1a34:	16 f4       	brtc	.+4      	; 0x1a3a <itoa+0x3a>
    1a36:	5d e2       	ldi	r21, 0x2D	; 45
    1a38:	51 93       	st	Z+, r21
    1a3a:	10 82       	st	Z, r1
    1a3c:	c9 01       	movw	r24, r18
    1a3e:	0c 94 72 0d 	jmp	0x1ae4	; 0x1ae4 <strrev>

00001a42 <ltoa>:
    1a42:	fa 01       	movw	r30, r20
    1a44:	cf 93       	push	r28
    1a46:	ff 93       	push	r31
    1a48:	ef 93       	push	r30
    1a4a:	22 30       	cpi	r18, 0x02	; 2
    1a4c:	44 f1       	brlt	.+80     	; 0x1a9e <ltoa+0x5c>
    1a4e:	25 32       	cpi	r18, 0x25	; 37
    1a50:	34 f5       	brge	.+76     	; 0x1a9e <ltoa+0x5c>
    1a52:	c2 2f       	mov	r28, r18
    1a54:	e8 94       	clt
    1a56:	ca 30       	cpi	r28, 0x0A	; 10
    1a58:	49 f4       	brne	.+18     	; 0x1a6c <ltoa+0x2a>
    1a5a:	97 fb       	bst	r25, 7
    1a5c:	3e f4       	brtc	.+14     	; 0x1a6c <ltoa+0x2a>
    1a5e:	90 95       	com	r25
    1a60:	80 95       	com	r24
    1a62:	70 95       	com	r23
    1a64:	61 95       	neg	r22
    1a66:	7f 4f       	sbci	r23, 0xFF	; 255
    1a68:	8f 4f       	sbci	r24, 0xFF	; 255
    1a6a:	9f 4f       	sbci	r25, 0xFF	; 255
    1a6c:	2c 2f       	mov	r18, r28
    1a6e:	33 27       	eor	r19, r19
    1a70:	44 27       	eor	r20, r20
    1a72:	55 27       	eor	r21, r21
    1a74:	ff 93       	push	r31
    1a76:	ef 93       	push	r30
    1a78:	0e 94 06 0c 	call	0x180c	; 0x180c <__udivmodsi4>
    1a7c:	ef 91       	pop	r30
    1a7e:	ff 91       	pop	r31
    1a80:	60 5d       	subi	r22, 0xD0	; 208
    1a82:	6a 33       	cpi	r22, 0x3A	; 58
    1a84:	0c f0       	brlt	.+2      	; 0x1a88 <ltoa+0x46>
    1a86:	69 5d       	subi	r22, 0xD9	; 217
    1a88:	61 93       	st	Z+, r22
    1a8a:	b9 01       	movw	r22, r18
    1a8c:	ca 01       	movw	r24, r20
    1a8e:	60 50       	subi	r22, 0x00	; 0
    1a90:	70 40       	sbci	r23, 0x00	; 0
    1a92:	80 40       	sbci	r24, 0x00	; 0
    1a94:	90 40       	sbci	r25, 0x00	; 0
    1a96:	51 f7       	brne	.-44     	; 0x1a6c <ltoa+0x2a>
    1a98:	16 f4       	brtc	.+4      	; 0x1a9e <ltoa+0x5c>
    1a9a:	cd e2       	ldi	r28, 0x2D	; 45
    1a9c:	c1 93       	st	Z+, r28
    1a9e:	10 82       	st	Z, r1
    1aa0:	8f 91       	pop	r24
    1aa2:	9f 91       	pop	r25
    1aa4:	cf 91       	pop	r28
    1aa6:	0c 94 72 0d 	jmp	0x1ae4	; 0x1ae4 <strrev>

00001aaa <__mulsi_const_10>:
    1aaa:	59 2f       	mov	r21, r25
    1aac:	48 2f       	mov	r20, r24
    1aae:	37 2f       	mov	r19, r23
    1ab0:	26 2f       	mov	r18, r22
    1ab2:	66 0f       	add	r22, r22
    1ab4:	77 1f       	adc	r23, r23
    1ab6:	88 1f       	adc	r24, r24
    1ab8:	99 1f       	adc	r25, r25
    1aba:	66 0f       	add	r22, r22
    1abc:	77 1f       	adc	r23, r23
    1abe:	88 1f       	adc	r24, r24
    1ac0:	99 1f       	adc	r25, r25
    1ac2:	62 0f       	add	r22, r18
    1ac4:	73 1f       	adc	r23, r19
    1ac6:	84 1f       	adc	r24, r20
    1ac8:	95 1f       	adc	r25, r21
    1aca:	66 0f       	add	r22, r22
    1acc:	77 1f       	adc	r23, r23
    1ace:	88 1f       	adc	r24, r24
    1ad0:	99 1f       	adc	r25, r25
    1ad2:	08 95       	ret

00001ad4 <__mulhi_const_10>:
    1ad4:	7a e0       	ldi	r23, 0x0A	; 10
    1ad6:	97 9f       	mul	r25, r23
    1ad8:	90 2d       	mov	r25, r0
    1ada:	87 9f       	mul	r24, r23
    1adc:	80 2d       	mov	r24, r0
    1ade:	91 0d       	add	r25, r1
    1ae0:	11 24       	eor	r1, r1
    1ae2:	08 95       	ret

00001ae4 <strrev>:
    1ae4:	dc 01       	movw	r26, r24
    1ae6:	fc 01       	movw	r30, r24
    1ae8:	67 2f       	mov	r22, r23
    1aea:	71 91       	ld	r23, Z+
    1aec:	77 23       	and	r23, r23
    1aee:	e1 f7       	brne	.-8      	; 0x1ae8 <strrev+0x4>
    1af0:	32 97       	sbiw	r30, 0x02	; 2
    1af2:	04 c0       	rjmp	.+8      	; 0x1afc <strrev+0x18>
    1af4:	7c 91       	ld	r23, X
    1af6:	6d 93       	st	X+, r22
    1af8:	70 83       	st	Z, r23
    1afa:	62 91       	ld	r22, -Z
    1afc:	ae 17       	cp	r26, r30
    1afe:	bf 07       	cpc	r27, r31
    1b00:	c8 f3       	brcs	.-14     	; 0x1af4 <strrev+0x10>
    1b02:	08 95       	ret

00001b04 <__prologue_saves__>:
    1b04:	2f 92       	push	r2
    1b06:	3f 92       	push	r3
    1b08:	4f 92       	push	r4
    1b0a:	5f 92       	push	r5
    1b0c:	6f 92       	push	r6
    1b0e:	7f 92       	push	r7
    1b10:	8f 92       	push	r8
    1b12:	9f 92       	push	r9
    1b14:	af 92       	push	r10
    1b16:	bf 92       	push	r11
    1b18:	cf 92       	push	r12
    1b1a:	df 92       	push	r13
    1b1c:	ef 92       	push	r14
    1b1e:	ff 92       	push	r15
    1b20:	0f 93       	push	r16
    1b22:	1f 93       	push	r17
    1b24:	cf 93       	push	r28
    1b26:	df 93       	push	r29
    1b28:	cd b7       	in	r28, 0x3d	; 61
    1b2a:	de b7       	in	r29, 0x3e	; 62
    1b2c:	ca 1b       	sub	r28, r26
    1b2e:	db 0b       	sbc	r29, r27
    1b30:	0f b6       	in	r0, 0x3f	; 63
    1b32:	f8 94       	cli
    1b34:	de bf       	out	0x3e, r29	; 62
    1b36:	0f be       	out	0x3f, r0	; 63
    1b38:	cd bf       	out	0x3d, r28	; 61
    1b3a:	09 94       	ijmp

00001b3c <__epilogue_restores__>:
    1b3c:	2a 88       	ldd	r2, Y+18	; 0x12
    1b3e:	39 88       	ldd	r3, Y+17	; 0x11
    1b40:	48 88       	ldd	r4, Y+16	; 0x10
    1b42:	5f 84       	ldd	r5, Y+15	; 0x0f
    1b44:	6e 84       	ldd	r6, Y+14	; 0x0e
    1b46:	7d 84       	ldd	r7, Y+13	; 0x0d
    1b48:	8c 84       	ldd	r8, Y+12	; 0x0c
    1b4a:	9b 84       	ldd	r9, Y+11	; 0x0b
    1b4c:	aa 84       	ldd	r10, Y+10	; 0x0a
    1b4e:	b9 84       	ldd	r11, Y+9	; 0x09
    1b50:	c8 84       	ldd	r12, Y+8	; 0x08
    1b52:	df 80       	ldd	r13, Y+7	; 0x07
    1b54:	ee 80       	ldd	r14, Y+6	; 0x06
    1b56:	fd 80       	ldd	r15, Y+5	; 0x05
    1b58:	0c 81       	ldd	r16, Y+4	; 0x04
    1b5a:	1b 81       	ldd	r17, Y+3	; 0x03
    1b5c:	aa 81       	ldd	r26, Y+2	; 0x02
    1b5e:	b9 81       	ldd	r27, Y+1	; 0x01
    1b60:	ce 0f       	add	r28, r30
    1b62:	d1 1d       	adc	r29, r1
    1b64:	0f b6       	in	r0, 0x3f	; 63
    1b66:	f8 94       	cli
    1b68:	de bf       	out	0x3e, r29	; 62
    1b6a:	0f be       	out	0x3f, r0	; 63
    1b6c:	cd bf       	out	0x3d, r28	; 61
    1b6e:	ed 01       	movw	r28, r26
    1b70:	08 95       	ret

00001b72 <_exit>:
    1b72:	f8 94       	cli

00001b74 <__stop_program>:
    1b74:	ff cf       	rjmp	.-2      	; 0x1b74 <__stop_program>
